

Microchip MPLAB XC8 Assembler V2.10 build 88905656 
                                                                                               Sat Feb 11 12:51:33 2023

Microchip MPLAB XC8 C Compiler v2.10 (Free license) build 20190730164152 Og1 
     1                           	processor	16F1455
     2                           	opt	pw 120
     3                           	opt	flic
     4                           	psect	idataBANK0,global,class=CODE,delta=2
     5                           	psect	stringtext1,global,class=STRCODE,delta=2
     6                           	psect	stringtext2,global,class=STRCODE,delta=2
     7                           	psect	stringtext3,global,class=STRCODE,delta=2
     8                           	psect	stringtext4,global,class=STRCODE,delta=2
     9                           	psect	stringtext5,global,class=STRCODE,delta=2
    10                           	psect	stringtext6,global,class=STRCODE,delta=2
    11                           	psect	stringtext7,global,class=STRCODE,delta=2
    12                           	psect	cinit,global,class=CODE,merge=1,delta=2
    13                           	psect	bssCOMMON,global,class=COMMON,space=1,delta=1
    14                           	psect	bssBANK0,global,class=BANK0,space=1,delta=1
    15                           	psect	dataBANK0,global,class=BANK0,space=1,delta=1
    16                           	psect	clrtext,global,class=CODE,delta=2
    17                           	psect	cstackCOMMON,global,class=COMMON,space=1,delta=1
    18                           	psect	cstackBANK0,global,class=BANK0,space=1,delta=1
    19                           	psect	maintext,global,class=CODE,merge=1,split=1,delta=2
    20                           	psect	text1,local,class=CODE,merge=1,delta=2
    21                           	psect	text2,local,class=CODE,merge=1,delta=2
    22                           	psect	text3,local,class=CODE,merge=1,delta=2
    23                           	psect	text4,local,class=CODE,merge=1,delta=2
    24                           	psect	text5,local,class=CODE,merge=1,delta=2
    25                           	psect	text6,local,class=CODE,merge=1,delta=2
    26                           	psect	text7,local,class=CODE,merge=1,delta=2
    27                           	psect	text8,local,class=CODE,merge=1,delta=2
    28                           	psect	text9,local,class=CODE,merge=1,delta=2
    29                           	psect	text10,local,class=CODE,merge=1,delta=2
    30                           	psect	text11,local,class=CODE,merge=1,delta=2
    31                           	psect	text12,local,class=CODE,merge=1,delta=2
    32                           	psect	text13,local,class=CODE,merge=1,delta=2
    33                           	psect	text14,local,class=CODE,merge=1,delta=2
    34                           	psect	intentry,global,class=CODE,delta=2
    35                           	psect	text16,local,class=CODE,merge=1,delta=2
    36                           	psect	text17,local,class=CODE,merge=1,delta=2
    37                           	psect	text18,local,class=CODE,merge=1,delta=2
    38                           	psect	text19,local,class=CODE,merge=1,delta=2
    39                           	psect	text20,local,class=CODE,merge=1,delta=2
    40                           	psect	text21,local,class=CODE,merge=1,delta=2
    41                           	psect	text22,local,class=CODE,merge=1,delta=2
    42                           	psect	text23,local,class=CODE,merge=1,delta=2
    43                           	psect	text24,local,class=CODE,merge=1,delta=2
    44                           	psect	text25,local,class=CODE,merge=1,delta=2
    45                           	psect	text26,local,class=CODE,merge=1,delta=2
    46                           	psect	text27,local,class=CODE,merge=1,delta=2
    47                           	psect	text28,local,class=CODE,merge=1,delta=2
    48                           	psect	text29,local,class=CODE,merge=1,delta=2
    49                           	psect	text30,local,class=CODE,merge=1,delta=2
    50                           	psect	text31,local,class=CODE,merge=1,delta=2
    51                           	psect	text32,local,class=CODE,merge=1,delta=2
    52                           	dabs	1,0x20,16,_Interfaces
    53                           	dabs	1,0x7E,2
    54  0000                     
    55                           ; Version 2.10
    56                           ; Generated 31/07/2019 GMT
    57                           ; 
    58                           ; Copyright © 2019, Microchip Technology Inc. and its subsidiaries ("Microchip")
    59                           ; All rights reserved.
    60                           ; 
    61                           ; This software is developed by Microchip Technology Inc. and its subsidiaries ("Microch
      +                          ip").
    62                           ; 
    63                           ; Redistribution and use in source and binary forms, with or without modification, are
    64                           ; permitted provided that the following conditions are met:
    65                           ; 
    66                           ;     1. Redistributions of source code must retain the above copyright notice, this lis
      +                          t of
    67                           ;        conditions and the following disclaimer.
    68                           ; 
    69                           ;     2. Redistributions in binary form must reproduce the above copyright notice, this 
      +                          list
    70                           ;        of conditions and the following disclaimer in the documentation and/or other
    71                           ;        materials provided with the distribution.
    72                           ; 
    73                           ;     3. Microchip's name may not be used to endorse or promote products derived from th
      +                          is
    74                           ;        software without specific prior written permission.
    75                           ; 
    76                           ; THIS SOFTWARE IS PROVIDED BY MICROCHIP "AS IS" AND ANY EXPRESS OR IMPLIED WARRANTIES,
    77                           ; INCLUDING, BUT NOT LIMITED TO, THE IMPLIED WARRANTIES OF MERCHANTABILITY AND FITNESS F
      +                          OR
    78                           ; PURPOSE ARE DISCLAIMED.  IN NO EVENT SHALL MICROCHIP BE LIABLE FOR ANY DIRECT, INDIREC
      +                          T,
    79                           ; INCIDENTAL, SPECIAL, EXEMPLARY, OR CONSEQUENTIAL DAMAGES (INCLUDING BUT NOT LIMITED TO
    80                           ; PROCUREMENT OF SUBSTITUTE GOODS OR SERVICES; LOSS OF USE, DATA OR PROFITS; OR BUSINESS
    81                           ; INTERRUPTION) HOWSOEVER CAUSED AND ON ANY THEORY OF LIABILITY, WHETHER IN CONTRACT, ST
      +                          RICT
    82                           ; LIABILITY, OR TORT (INCLUDING NEGLIGENCE OR OTHERWISE) ARISING IN ANY WAY OUT OF THE U
      +                          SE OF
    83                           ; THIS SOFTWARE, EVEN IF ADVISED OF THE POSSIBILITY OF SUCH DAMAGE.
    84                           ; 
    85                           ; 
    86                           ; Code-generator required, PIC16F1455 Definitions
    87                           ; 
    88                           ; SFR Addresses
    89  0000                     	;# 
    90  0001                     	;# 
    91  0002                     	;# 
    92  0003                     	;# 
    93  0004                     	;# 
    94  0005                     	;# 
    95  0006                     	;# 
    96  0007                     	;# 
    97  0008                     	;# 
    98  0009                     	;# 
    99  000A                     	;# 
   100  000B                     	;# 
   101  000C                     	;# 
   102  000E                     	;# 
   103  0011                     	;# 
   104  0012                     	;# 
   105  0015                     	;# 
   106  0016                     	;# 
   107  0016                     	;# 
   108  0017                     	;# 
   109  0018                     	;# 
   110  0019                     	;# 
   111  001A                     	;# 
   112  001B                     	;# 
   113  001C                     	;# 
   114  008C                     	;# 
   115  008E                     	;# 
   116  0091                     	;# 
   117  0092                     	;# 
   118  0095                     	;# 
   119  0096                     	;# 
   120  0097                     	;# 
   121  0098                     	;# 
   122  0099                     	;# 
   123  009A                     	;# 
   124  009B                     	;# 
   125  009B                     	;# 
   126  009C                     	;# 
   127  009D                     	;# 
   128  009E                     	;# 
   129  009F                     	;# 
   130  010C                     	;# 
   131  010E                     	;# 
   132  0111                     	;# 
   133  0112                     	;# 
   134  0113                     	;# 
   135  0114                     	;# 
   136  0115                     	;# 
   137  0116                     	;# 
   138  0117                     	;# 
   139  0118                     	;# 
   140  0119                     	;# 
   141  011D                     	;# 
   142  018C                     	;# 
   143  018E                     	;# 
   144  0191                     	;# 
   145  0191                     	;# 
   146  0192                     	;# 
   147  0193                     	;# 
   148  0193                     	;# 
   149  0194                     	;# 
   150  0195                     	;# 
   151  0196                     	;# 
   152  0197                     	;# 
   153  0199                     	;# 
   154  019A                     	;# 
   155  019B                     	;# 
   156  019B                     	;# 
   157  019C                     	;# 
   158  019D                     	;# 
   159  019E                     	;# 
   160  019F                     	;# 
   161  020C                     	;# 
   162  0211                     	;# 
   163  0211                     	;# 
   164  0212                     	;# 
   165  0212                     	;# 
   166  0213                     	;# 
   167  0213                     	;# 
   168  0214                     	;# 
   169  0214                     	;# 
   170  0215                     	;# 
   171  0215                     	;# 
   172  0215                     	;# 
   173  0216                     	;# 
   174  0216                     	;# 
   175  0217                     	;# 
   176  0217                     	;# 
   177  0391                     	;# 
   178  0392                     	;# 
   179  0393                     	;# 
   180  039A                     	;# 
   181  039B                     	;# 
   182  0611                     	;# 
   183  0612                     	;# 
   184  0613                     	;# 
   185  0613                     	;# 
   186  0614                     	;# 
   187  0615                     	;# 
   188  0616                     	;# 
   189  0616                     	;# 
   190  0691                     	;# 
   191  0692                     	;# 
   192  0693                     	;# 
   193  0694                     	;# 
   194  0695                     	;# 
   195  0E8E                     	;# 
   196  0E8F                     	;# 
   197  0E90                     	;# 
   198  0E91                     	;# 
   199  0E92                     	;# 
   200  0E93                     	;# 
   201  0E94                     	;# 
   202  0E94                     	;# 
   203  0E95                     	;# 
   204  0E96                     	;# 
   205  0E97                     	;# 
   206  0E98                     	;# 
   207  0E99                     	;# 
   208  0E9A                     	;# 
   209  0E9B                     	;# 
   210  0E9C                     	;# 
   211  0E9D                     	;# 
   212  0E9E                     	;# 
   213  0E9F                     	;# 
   214  0FE4                     	;# 
   215  0FE5                     	;# 
   216  0FE6                     	;# 
   217  0FE7                     	;# 
   218  0FE8                     	;# 
   219  0FE9                     	;# 
   220  0FEA                     	;# 
   221  0FEB                     	;# 
   222  0FED                     	;# 
   223  0FEE                     	;# 
   224  0FEF                     	;# 
   225  0000                     	;# 
   226  0001                     	;# 
   227  0002                     	;# 
   228  0003                     	;# 
   229  0004                     	;# 
   230  0005                     	;# 
   231  0006                     	;# 
   232  0007                     	;# 
   233  0008                     	;# 
   234  0009                     	;# 
   235  000A                     	;# 
   236  000B                     	;# 
   237  000C                     	;# 
   238  000E                     	;# 
   239  0011                     	;# 
   240  0012                     	;# 
   241  0015                     	;# 
   242  0016                     	;# 
   243  0016                     	;# 
   244  0017                     	;# 
   245  0018                     	;# 
   246  0019                     	;# 
   247  001A                     	;# 
   248  001B                     	;# 
   249  001C                     	;# 
   250  008C                     	;# 
   251  008E                     	;# 
   252  0091                     	;# 
   253  0092                     	;# 
   254  0095                     	;# 
   255  0096                     	;# 
   256  0097                     	;# 
   257  0098                     	;# 
   258  0099                     	;# 
   259  009A                     	;# 
   260  009B                     	;# 
   261  009B                     	;# 
   262  009C                     	;# 
   263  009D                     	;# 
   264  009E                     	;# 
   265  009F                     	;# 
   266  010C                     	;# 
   267  010E                     	;# 
   268  0111                     	;# 
   269  0112                     	;# 
   270  0113                     	;# 
   271  0114                     	;# 
   272  0115                     	;# 
   273  0116                     	;# 
   274  0117                     	;# 
   275  0118                     	;# 
   276  0119                     	;# 
   277  011D                     	;# 
   278  018C                     	;# 
   279  018E                     	;# 
   280  0191                     	;# 
   281  0191                     	;# 
   282  0192                     	;# 
   283  0193                     	;# 
   284  0193                     	;# 
   285  0194                     	;# 
   286  0195                     	;# 
   287  0196                     	;# 
   288  0197                     	;# 
   289  0199                     	;# 
   290  019A                     	;# 
   291  019B                     	;# 
   292  019B                     	;# 
   293  019C                     	;# 
   294  019D                     	;# 
   295  019E                     	;# 
   296  019F                     	;# 
   297  020C                     	;# 
   298  0211                     	;# 
   299  0211                     	;# 
   300  0212                     	;# 
   301  0212                     	;# 
   302  0213                     	;# 
   303  0213                     	;# 
   304  0214                     	;# 
   305  0214                     	;# 
   306  0215                     	;# 
   307  0215                     	;# 
   308  0215                     	;# 
   309  0216                     	;# 
   310  0216                     	;# 
   311  0217                     	;# 
   312  0217                     	;# 
   313  0391                     	;# 
   314  0392                     	;# 
   315  0393                     	;# 
   316  039A                     	;# 
   317  039B                     	;# 
   318  0611                     	;# 
   319  0612                     	;# 
   320  0613                     	;# 
   321  0613                     	;# 
   322  0614                     	;# 
   323  0615                     	;# 
   324  0616                     	;# 
   325  0616                     	;# 
   326  0691                     	;# 
   327  0692                     	;# 
   328  0693                     	;# 
   329  0694                     	;# 
   330  0695                     	;# 
   331  0E8E                     	;# 
   332  0E8F                     	;# 
   333  0E90                     	;# 
   334  0E91                     	;# 
   335  0E92                     	;# 
   336  0E93                     	;# 
   337  0E94                     	;# 
   338  0E94                     	;# 
   339  0E95                     	;# 
   340  0E96                     	;# 
   341  0E97                     	;# 
   342  0E98                     	;# 
   343  0E99                     	;# 
   344  0E9A                     	;# 
   345  0E9B                     	;# 
   346  0E9C                     	;# 
   347  0E9D                     	;# 
   348  0E9E                     	;# 
   349  0E9F                     	;# 
   350  0FE4                     	;# 
   351  0FE5                     	;# 
   352  0FE6                     	;# 
   353  0FE7                     	;# 
   354  0FE8                     	;# 
   355  0FE9                     	;# 
   356  0FEA                     	;# 
   357  0FEB                     	;# 
   358  0FED                     	;# 
   359  0FEE                     	;# 
   360  0FEF                     	;# 
   361  0000                     	;# 
   362  0001                     	;# 
   363  0002                     	;# 
   364  0003                     	;# 
   365  0004                     	;# 
   366  0005                     	;# 
   367  0006                     	;# 
   368  0007                     	;# 
   369  0008                     	;# 
   370  0009                     	;# 
   371  000A                     	;# 
   372  000B                     	;# 
   373  000C                     	;# 
   374  000E                     	;# 
   375  0011                     	;# 
   376  0012                     	;# 
   377  0015                     	;# 
   378  0016                     	;# 
   379  0016                     	;# 
   380  0017                     	;# 
   381  0018                     	;# 
   382  0019                     	;# 
   383  001A                     	;# 
   384  001B                     	;# 
   385  001C                     	;# 
   386  008C                     	;# 
   387  008E                     	;# 
   388  0091                     	;# 
   389  0092                     	;# 
   390  0095                     	;# 
   391  0096                     	;# 
   392  0097                     	;# 
   393  0098                     	;# 
   394  0099                     	;# 
   395  009A                     	;# 
   396  009B                     	;# 
   397  009B                     	;# 
   398  009C                     	;# 
   399  009D                     	;# 
   400  009E                     	;# 
   401  009F                     	;# 
   402  010C                     	;# 
   403  010E                     	;# 
   404  0111                     	;# 
   405  0112                     	;# 
   406  0113                     	;# 
   407  0114                     	;# 
   408  0115                     	;# 
   409  0116                     	;# 
   410  0117                     	;# 
   411  0118                     	;# 
   412  0119                     	;# 
   413  011D                     	;# 
   414  018C                     	;# 
   415  018E                     	;# 
   416  0191                     	;# 
   417  0191                     	;# 
   418  0192                     	;# 
   419  0193                     	;# 
   420  0193                     	;# 
   421  0194                     	;# 
   422  0195                     	;# 
   423  0196                     	;# 
   424  0197                     	;# 
   425  0199                     	;# 
   426  019A                     	;# 
   427  019B                     	;# 
   428  019B                     	;# 
   429  019C                     	;# 
   430  019D                     	;# 
   431  019E                     	;# 
   432  019F                     	;# 
   433  020C                     	;# 
   434  0211                     	;# 
   435  0211                     	;# 
   436  0212                     	;# 
   437  0212                     	;# 
   438  0213                     	;# 
   439  0213                     	;# 
   440  0214                     	;# 
   441  0214                     	;# 
   442  0215                     	;# 
   443  0215                     	;# 
   444  0215                     	;# 
   445  0216                     	;# 
   446  0216                     	;# 
   447  0217                     	;# 
   448  0217                     	;# 
   449  0391                     	;# 
   450  0392                     	;# 
   451  0393                     	;# 
   452  039A                     	;# 
   453  039B                     	;# 
   454  0611                     	;# 
   455  0612                     	;# 
   456  0613                     	;# 
   457  0613                     	;# 
   458  0614                     	;# 
   459  0615                     	;# 
   460  0616                     	;# 
   461  0616                     	;# 
   462  0691                     	;# 
   463  0692                     	;# 
   464  0693                     	;# 
   465  0694                     	;# 
   466  0695                     	;# 
   467  0E8E                     	;# 
   468  0E8F                     	;# 
   469  0E90                     	;# 
   470  0E91                     	;# 
   471  0E92                     	;# 
   472  0E93                     	;# 
   473  0E94                     	;# 
   474  0E94                     	;# 
   475  0E95                     	;# 
   476  0E96                     	;# 
   477  0E97                     	;# 
   478  0E98                     	;# 
   479  0E99                     	;# 
   480  0E9A                     	;# 
   481  0E9B                     	;# 
   482  0E9C                     	;# 
   483  0E9D                     	;# 
   484  0E9E                     	;# 
   485  0E9F                     	;# 
   486  0FE4                     	;# 
   487  0FE5                     	;# 
   488  0FE6                     	;# 
   489  0FE7                     	;# 
   490  0FE8                     	;# 
   491  0FE9                     	;# 
   492  0FEA                     	;# 
   493  0FEB                     	;# 
   494  0FED                     	;# 
   495  0FEE                     	;# 
   496  0FEF                     	;# 
   497                           
   498                           	psect	idataBANK0
   499  0FE6                     __pidataBANK0:	
   500                           
   501                           ;initializer for _Buffers
   502  0FE6  3403               	retlw	3
   503  0FE7  3451               	retlw	low (_HIDTxBuffer| 0)
   504  0FE8  3403               	retlw	3
   505  0FE9  3454               	retlw	low (_HIDRxBuffer| 0)
   506                           
   507                           	psect	stringtext1
   508  1000                     __pstringtext1:	
   509  1000                     _StringDescriptorPointers:	
   510  1000  3406               	retlw	low (_StringDescriptor0| (0+32768))
   511  1001  3490               	retlw	high (_StringDescriptor0| (0+32768))
   512  1002  3434               	retlw	low (_StringDescriptor1| (0+32768))
   513  1003  3487               	retlw	high (_StringDescriptor1| (0+32768))
   514  1004  34A2               	retlw	low (_StringDescriptor2| (0+32768))
   515  1005  3487               	retlw	high (_StringDescriptor2| (0+32768))
   516  1006                     __end_of_StringDescriptorPointers:	
   517                           
   518                           	psect	stringtext2
   519  06A6                     __pstringtext2:	
   520  06A6                     _HIDReport:	
   521  06A6  3405               	retlw	5
   522  06A7  3401               	retlw	1
   523  06A8  3409               	retlw	9
   524  06A9  3405               	retlw	5
   525  06AA  34A1               	retlw	161
   526  06AB  3401               	retlw	1
   527  06AC  34A1               	retlw	161
   528  06AD  3400               	retlw	0
   529  06AE  3405               	retlw	5
   530  06AF  3401               	retlw	1
   531  06B0  3409               	retlw	9
   532  06B1  3430               	retlw	48
   533  06B2  3409               	retlw	9
   534  06B3  3431               	retlw	49
   535  06B4  3415               	retlw	21
   536  06B5  3481               	retlw	129
   537  06B6  3425               	retlw	37
   538  06B7  347F               	retlw	127
   539  06B8  3475               	retlw	117
   540  06B9  3408               	retlw	8
   541  06BA  3495               	retlw	149
   542  06BB  3402               	retlw	2
   543  06BC  3481               	retlw	129
   544  06BD  3402               	retlw	2
   545  06BE  3405               	retlw	5
   546  06BF  3409               	retlw	9
   547  06C0  3419               	retlw	25
   548  06C1  3401               	retlw	1
   549  06C2  3429               	retlw	41
   550  06C3  3404               	retlw	4
   551  06C4  3415               	retlw	21
   552  06C5  3400               	retlw	0
   553  06C6  3425               	retlw	37
   554  06C7  3401               	retlw	1
   555  06C8  3475               	retlw	117
   556  06C9  3401               	retlw	1
   557  06CA  3495               	retlw	149
   558  06CB  3408               	retlw	8
   559  06CC  3481               	retlw	129
   560  06CD  3402               	retlw	2
   561  06CE  34C0               	retlw	192
   562  06CF  34C0               	retlw	192
   563  06D0                     __end_of_HIDReport:	
   564                           
   565                           	psect	stringtext3
   566  06F5                     __pstringtext3:	
   567  06F5                     _ConfigurationDescriptor:	
   568  06F5  3409               	retlw	9
   569  06F6  3402               	retlw	2
   570  06F7  3422               	retlw	34
   571  06F8  3400               	retlw	0
   572  06F9  3401               	retlw	1
   573  06FA  3401               	retlw	1
   574  06FB  3400               	retlw	0
   575  06FC  34A0               	retlw	160
   576  06FD  3432               	retlw	50
   577  06FE  3409               	retlw	9
   578  06FF  3404               	retlw	4
   579  0700  3400               	retlw	0
   580  0701  3400               	retlw	0
   581  0702  3401               	retlw	1
   582  0703  3403               	retlw	3
   583  0704  3401               	retlw	1
   584  0705  3400               	retlw	0
   585  0706  3400               	retlw	0
   586  0707  3409               	retlw	9
   587  0708  3421               	retlw	33
   588  0709  3411               	retlw	17
   589  070A  3401               	retlw	1
   590  070B  3400               	retlw	0
   591  070C  3401               	retlw	1
   592  070D  3422               	retlw	34
   593  070E  342A               	retlw	42
   594  070F  3400               	retlw	0
   595  0710  3407               	retlw	7
   596  0711  3405               	retlw	5
   597  0712  3481               	retlw	129
   598  0713  3403               	retlw	3
   599  0714  3403               	retlw	3
   600  0715  3400               	retlw	0
   601  0716  3401               	retlw	1
   602  0717                     __end_of_ConfigurationDescriptor:	
   603                           
   604                           	psect	stringtext4
   605  0734                     __pstringtext4:	
   606  0734                     _StringDescriptor1:	
   607  0734  341C               	retlw	28
   608  0735  3403               	retlw	3
   609  0736  344A               	retlw	74
   610  0737  3400               	retlw	0
   611  0738  346F               	retlw	111
   612  0739  3400               	retlw	0
   613  073A  3465               	retlw	101
   614  073B  3400               	retlw	0
   615  073C  3420               	retlw	32
   616  073D  3400               	retlw	0
   617  073E  344F               	retlw	79
   618  073F  3400               	retlw	0
   619  0740  3473               	retlw	115
   620  0741  3400               	retlw	0
   621  0742  3474               	retlw	116
   622  0743  3400               	retlw	0
   623  0744  3472               	retlw	114
   624  0745  3400               	retlw	0
   625  0746  3461               	retlw	97
   626  0747  3400               	retlw	0
   627  0748  346E               	retlw	110
   628  0749  3400               	retlw	0
   629  074A  3464               	retlw	100
   630  074B  3400               	retlw	0
   631  074C  3465               	retlw	101
   632  074D  3400               	retlw	0
   633  074E  3472               	retlw	114
   634  074F  3400               	retlw	0
   635  0750                     __end_of_StringDescriptor1:	
   636                           
   637                           	psect	stringtext5
   638  077F                     __pstringtext5:	
   639  077F                     _DeviceDescriptor:	
   640  077F  3412               	retlw	18
   641  0780  3401               	retlw	1
   642  0781  3400               	retlw	0
   643  0782  3402               	retlw	2
   644  0783  3400               	retlw	0
   645  0784  3400               	retlw	0
   646  0785  3400               	retlw	0
   647  0786  3408               	retlw	8
   648  0787  34D8               	retlw	216
   649  0788  3404               	retlw	4
   650  0789  34A6               	retlw	166
   651  078A  3401               	retlw	1
   652  078B  3401               	retlw	1
   653  078C  3400               	retlw	0
   654  078D  3401               	retlw	1
   655  078E  3402               	retlw	2
   656  078F  3400               	retlw	0
   657  0790  3401               	retlw	1
   658  0791                     __end_of_DeviceDescriptor:	
   659                           
   660                           	psect	stringtext6
   661  07A2                     __pstringtext6:	
   662  07A2                     _StringDescriptor2:	
   663  07A2  3410               	retlw	16
   664  07A3  3403               	retlw	3
   665  07A4  344E               	retlw	78
   666  07A5  3400               	retlw	0
   667  07A6  3445               	retlw	69
   668  07A7  3400               	retlw	0
   669  07A8  3453               	retlw	83
   670  07A9  3400               	retlw	0
   671  07AA  3432               	retlw	50
   672  07AB  3400               	retlw	0
   673  07AC  3455               	retlw	85
   674  07AD  3400               	retlw	0
   675  07AE  3453               	retlw	83
   676  07AF  3400               	retlw	0
   677  07B0  3442               	retlw	66
   678  07B1  3400               	retlw	0
   679  07B2                     __end_of_StringDescriptor2:	
   680                           
   681                           	psect	stringtext7
   682  1006                     __pstringtext7:	
   683  1006                     _StringDescriptor0:	
   684  1006  3404               	retlw	4
   685  1007  3403               	retlw	3
   686  1008  3409               	retlw	9
   687  1009  3404               	retlw	4
   688  100A                     __end_of_StringDescriptor0:	
   689  000E                     _PORTCbits	set	14
   690  000C                     _PORTAbits	set	12
   691  000B                     _INTCONbits	set	11
   692  0012                     _PIR2bits	set	18
   693  008C                     _TRISAbits	set	140
   694  008E                     _TRISCbits	set	142
   695  0092                     _PIE2bits	set	146
   696  0095                     _OPTION_REG	set	149
   697  0099                     _OSCCON	set	153
   698  0098                     _OSCTUNE	set	152
   699  010E                     _LATCbits	set	270
   700  010E                     _LATC	set	270
   701  018C                     _ANSELAbits	set	396
   702  018E                     _ANSELCbits	set	398
   703  018E                     _ANSELC	set	398
   704  018C                     _ANSELA	set	396
   705  039B                     _ACTCON	set	923
   706  0E99                     _EndpointFlags	set	3737
   707  0E98                     _UEP0	set	3736
   708  0E97                     _UEIE	set	3735
   709  0E98                     _UEP0bits	set	3736
   710  0E90                     _UIRbits	set	3728
   711  0E92                     _UIEbits	set	3730
   712  0E90                     _UIR	set	3728
   713  0E8E                     _UCON	set	3726
   714  0E93                     _UEIR	set	3731
   715  0E91                     _UCFG	set	3729
   716  0E96                     _UADDR	set	3734
   717  0E8F                     _USTAT	set	3727
   718  0E8E                     _UCONbits	set	3726
   719  0E92                     _UIE	set	3730
   720                           
   721                           ; #config settings
   722  0000                     
   723                           	psect	cinit
   724  0012                     start_initialization:	
   725  0012                     __initialization:	
   726                           
   727                           ; Initialize objects allocated to BANK0
   728  0012  318F  27E6  3180   	fcall	__pidataBANK0	;fetch initializer
   729  0015  00E1               	movwf	__pdataBANK0& (0+127)
   730  0016  318F  27E7  3180   	fcall	__pidataBANK0+1	;fetch initializer
   731  0019  00E2               	movwf	(__pdataBANK0+1)& (0+127)
   732  001A  318F  27E8  3180   	fcall	__pidataBANK0+2	;fetch initializer
   733  001D  00E3               	movwf	(__pdataBANK0+2)& (0+127)
   734  001E  318F  27E9  3180   	fcall	__pidataBANK0+3	;fetch initializer
   735  0021  00E4               	movwf	(__pdataBANK0+3)& (0+127)
   736                           
   737                           ; Clear objects allocated to COMMON
   738  0022  01FD               	clrf	__pbssCOMMON& (0+127)
   739                           
   740                           ; Clear objects allocated to BANK0
   741  0023  3030               	movlw	low __pbssBANK0
   742  0024  0084               	movwf	4
   743  0025  3000               	movlw	high __pbssBANK0
   744  0026  0085               	movwf	5
   745  0027  302A               	movlw	42
   746  0028  318F  27EA  3180   	fcall	clear_ram0
   747  002B                     end_of_initialization:	
   748                           ;End of C runtime variable initialization code
   749                           
   750  002B                     __end_of__initialization:	
   751  002B  107E               	bcf	int$flags,0	;clear compiler interrupt flag (level 1)
   752  002C  0020               	movlb	0
   753  002D  3187  2F6A         	ljmp	_main	;jump to C main() function
   754                           
   755                           	psect	bssCOMMON
   756  007D                     __pbssCOMMON:	
   757  007D                     _inPtr:	
   758  007D                     	ds	1
   759                           
   760                           	psect	bssBANK0
   761  0030                     __pbssBANK0:	
   762  0030                     _wCount:	
   763  0030                     	ds	2
   764  0032                     _ROMoutPtr:	
   765  0032                     	ds	2
   766  0034                     _last_reading:	
   767  0034                     	ds	1
   768  0035                     _transferType:	
   769  0035                     	ds	1
   770  0036                     _outPtr:	
   771  0036                     	ds	1
   772  0037                     _HidRxLen:	
   773  0037                     	ds	1
   774  0038                     _RequestHandled:	
   775  0038                     	ds	1
   776  0039                     _HIDPostProcess:	
   777  0039                     	ds	1
   778  003A                     _CtrlTransferStage:	
   779  003A                     	ds	1
   780  003B                     _SelfPowered:	
   781  003B                     	ds	1
   782  003C                     _DeviceAddress:	
   783  003C                     	ds	1
   784  003D                     _RemoteWakeup:	
   785  003D                     	ds	1
   786  003E                     _last_gamepad_reading:	
   787  003E                     	ds	1
   788  003F                     _DeviceState:	
   789  003F                     	ds	1
   790  0040                     _SetupPacket:	
   791  0040                     	ds	9
   792  0049                     _ControlTransferBuffer:	
   793  0049                     	ds	8
   794  0051                     _HIDTxBuffer:	
   795  0051                     	ds	3
   796  0054                     _HIDRxBuffer:	
   797  0054                     	ds	3
   798  0057                     _HidProtocol:	
   799  0057                     	ds	1
   800  0058                     _HidIdleRate:	
   801  0058                     	ds	1
   802  0059                     _CurrentConfiguration:	
   803  0059                     	ds	1
   804                           
   805                           	psect	dataBANK0
   806  0061                     __pdataBANK0:	
   807  0061                     _Buffers:	
   808  0061                     	ds	4
   809                           
   810                           	psect	clrtext
   811  0FEA                     clear_ram0:	
   812                           ;	Called with FSR0 containing the base address, and
   813                           ;	WREG with the size to clear
   814                           
   815  0FEA  0064               	clrwdt	;clear the watchdog before getting into this loop
   816  0FEB                     clrloop0:	
   817  0FEB  0180               	clrf	0	;clear RAM location pointed to by FSR
   818  0FEC  3101               	addfsr 0,1
   819  0FED  0B89               	decfsz	9,f	;Have we reached the end of clearing yet?
   820  0FEE  2FEB               	goto	clrloop0	;have we reached the end yet?
   821  0FEF  3400               	retlw	0	;all done for this memory range, return
   822                           
   823                           	psect	cstackCOMMON
   824  0070                     __pcstackCOMMON:	
   825  0070                     ?_ProcessUSBTransactions:	
   826  0070                     ?_IsUsbDataAvaialble:	
   827                           ; 1 bytes @ 0x0
   828                           
   829  0070                     ?_ReArmInterface:	
   830                           ; 1 bytes @ 0x0
   831                           
   832  0070                     ?_NES_read_pad:	
   833                           ; 1 bytes @ 0x0
   834                           
   835  0070                     ?_HIDSend:	
   836                           ; 1 bytes @ 0x0
   837                           
   838  0070                     ?_NES_GPIO_Initialize:	
   839                           ; 1 bytes @ 0x0
   840                           
   841  0070                     ?_InitializeUSB:	
   842                           ; 1 bytes @ 0x0
   843                           
   844  0070                     ?_EnableUSBModule:	
   845                           ; 1 bytes @ 0x0
   846                           
   847  0070                     ?_ISRCode:	
   848                           ; 1 bytes @ 0x0
   849                           
   850  0070                     ?_InitializeSystem:	
   851                           ; 1 bytes @ 0x0
   852                           
   853  0070                     ?_EnableInterrupts:	
   854                           ; 1 bytes @ 0x0
   855                           
   856  0070                     ?_PrepareTxBuffer:	
   857                           ; 1 bytes @ 0x0
   858                           
   859  0070                     ?_ProcessIncomingData:	
   860                           ; 1 bytes @ 0x0
   861                           
   862  0070                     ?_CheckUsb:	
   863                           ; 1 bytes @ 0x0
   864                           
   865  0070                     ?_ProcessIO:	
   866                           ; 1 bytes @ 0x0
   867                           
   868  0070                     ?_main:	
   869                           ; 1 bytes @ 0x0
   870                           
   871  0070                     ?_HIDInitEndpoints:	
   872                           ; 1 bytes @ 0x0
   873                           
   874  0070                     ??_HIDInitEndpoints:	
   875                           ; 1 bytes @ 0x0
   876                           
   877  0070                     ?_ProcessHIDRequest:	
   878                           ; 1 bytes @ 0x0
   879                           
   880  0070                     ??_ProcessHIDRequest:	
   881                           ; 1 bytes @ 0x0
   882                           
   883  0070                     ?_GetDescriptor:	
   884                           ; 1 bytes @ 0x0
   885                           
   886  0070                     ??_GetDescriptor:	
   887                           ; 1 bytes @ 0x0
   888                           
   889  0070                     ?_GetStatus:	
   890                           ; 1 bytes @ 0x0
   891                           
   892  0070                     ??_GetStatus:	
   893                           ; 1 bytes @ 0x0
   894                           
   895  0070                     ?_SetFeature:	
   896                           ; 1 bytes @ 0x0
   897                           
   898  0070                     ??_SetFeature:	
   899                           ; 1 bytes @ 0x0
   900                           
   901  0070                     ?_ProcessStandardRequest:	
   902                           ; 1 bytes @ 0x0
   903                           
   904  0070                     ?_InDataStage:	
   905                           ; 1 bytes @ 0x0
   906                           
   907  0070                     ??_InDataStage:	
   908                           ; 1 bytes @ 0x0
   909                           
   910  0070                     ?_OutDataStage:	
   911                           ; 1 bytes @ 0x0
   912                           
   913  0070                     ??_OutDataStage:	
   914                           ; 1 bytes @ 0x0
   915                           
   916  0070                     ?_SetupStage:	
   917                           ; 1 bytes @ 0x0
   918                           
   919  0070                     ?_WaitForSetupStage:	
   920                           ; 1 bytes @ 0x0
   921                           
   922  0070                     ??_WaitForSetupStage:	
   923                           ; 1 bytes @ 0x0
   924                           
   925  0070                     ?_ProcessControlTransfer:	
   926                           ; 1 bytes @ 0x0
   927                           
   928  0070                     ?_ResetPPBuffers:	
   929                           ; 1 bytes @ 0x0
   930                           
   931  0070                     ?_UnSuspend:	
   932                           ; 1 bytes @ 0x0
   933                           
   934  0070                     ??_UnSuspend:	
   935                           ; 1 bytes @ 0x0
   936                           
   937  0070                     ?_StartOfFrame:	
   938                           ; 1 bytes @ 0x0
   939                           
   940  0070                     ??_StartOfFrame:	
   941                           ; 1 bytes @ 0x0
   942                           
   943  0070                     ?_Stall:	
   944                           ; 1 bytes @ 0x0
   945                           
   946  0070                     ?_Suspend:	
   947                           ; 1 bytes @ 0x0
   948                           
   949  0070                     ??_Suspend:	
   950                           ; 1 bytes @ 0x0
   951                           
   952  0070                     ?_BusReset:	
   953                           ; 1 bytes @ 0x0
   954                           
   955                           
   956                           ; 1 bytes @ 0x0
   957  0070                     	ds	1
   958  0071                     ??_Stall:	
   959  0071                     ??_BusReset:	
   960                           ; 1 bytes @ 0x1
   961                           
   962  0071                     ProcessHIDRequest@descriptorType:	
   963                           ; 1 bytes @ 0x1
   964                           
   965  0071                     OutDataStage@i:	
   966                           ; 1 bytes @ 0x1
   967                           
   968                           
   969                           ; 2 bytes @ 0x1
   970  0071                     	ds	1
   971  0072                     ProcessHIDRequest@bRequest:	
   972  0072                     GetStatus@endpointNum:	
   973                           ; 1 bytes @ 0x2
   974                           
   975  0072                     SetFeature@recipient:	
   976                           ; 1 bytes @ 0x2
   977                           
   978  0072                     InDataStage@i:	
   979                           ; 1 bytes @ 0x2
   980                           
   981                           
   982                           ; 1 bytes @ 0x2
   983  0072                     	ds	1
   984  0073                     GetDescriptor@descriptorIndex:	
   985  0073                     GetStatus@endpointDir:	
   986                           ; 1 bytes @ 0x3
   987                           
   988  0073                     SetFeature@feature:	
   989                           ; 1 bytes @ 0x3
   990                           
   991  0073                     InDataStage@bufferSize:	
   992                           ; 1 bytes @ 0x3
   993                           
   994  0073                     OutDataStage@bufferSize:	
   995                           ; 2 bytes @ 0x3
   996                           
   997                           
   998                           ; 2 bytes @ 0x3
   999  0073                     	ds	1
  1000  0074                     HIDInitEndpoints@i:	
  1001  0074                     GetDescriptor@descriptorType:	
  1002                           ; 1 bytes @ 0x4
  1003                           
  1004  0074                     GetStatus@recipient:	
  1005                           ; 1 bytes @ 0x4
  1006                           
  1007  0074                     SetFeature@endpointNum:	
  1008                           ; 1 bytes @ 0x4
  1009                           
  1010                           
  1011                           ; 1 bytes @ 0x4
  1012  0074                     	ds	1
  1013  0075                     SetFeature@endpointDir:	
  1014                           
  1015                           ; 1 bytes @ 0x5
  1016  0075                     	ds	1
  1017  0076                     ??_ProcessStandardRequest:	
  1018                           
  1019                           ; 1 bytes @ 0x6
  1020  0076                     	ds	1
  1021  0077                     ProcessStandardRequest@request:	
  1022                           
  1023                           ; 1 bytes @ 0x7
  1024  0077                     	ds	1
  1025  0078                     ??_SetupStage:	
  1026                           
  1027                           ; 1 bytes @ 0x8
  1028  0078                     	ds	1
  1029  0079                     ??_ProcessControlTransfer:	
  1030                           
  1031                           ; 1 bytes @ 0x9
  1032  0079                     	ds	2
  1033  007B                     ProcessControlTransfer@PID:	
  1034                           
  1035                           ; 1 bytes @ 0xB
  1036  007B                     	ds	1
  1037  007C                     ??_ProcessUSBTransactions:	
  1038                           
  1039                           ; 1 bytes @ 0xC
  1040  007C                     	ds	1
  1041  007D                     ??_ISRCode:	
  1042                           
  1043                           	psect	cstackBANK0
  1044  005A                     __pcstackBANK0:	
  1045                           ; 1 bytes @ 0xD
  1046                           
  1047  005A                     ??_IsUsbDataAvaialble:	
  1048  005A                     ??_ReArmInterface:	
  1049                           ; 1 bytes @ 0x0
  1050                           
  1051  005A                     ??_NES_read_pad:	
  1052                           ; 1 bytes @ 0x0
  1053                           
  1054  005A                     ??_HIDSend:	
  1055                           ; 1 bytes @ 0x0
  1056                           
  1057  005A                     ??_NES_GPIO_Initialize:	
  1058                           ; 1 bytes @ 0x0
  1059                           
  1060  005A                     ??_InitializeUSB:	
  1061                           ; 1 bytes @ 0x0
  1062                           
  1063  005A                     ??_EnableUSBModule:	
  1064                           ; 1 bytes @ 0x0
  1065                           
  1066  005A                     ??_InitializeSystem:	
  1067                           ; 1 bytes @ 0x0
  1068                           
  1069  005A                     ??_EnableInterrupts:	
  1070                           ; 1 bytes @ 0x0
  1071                           
  1072  005A                     ??_PrepareTxBuffer:	
  1073                           ; 1 bytes @ 0x0
  1074                           
  1075  005A                     ??_ProcessIncomingData:	
  1076                           ; 1 bytes @ 0x0
  1077                           
  1078  005A                     ??_ResetPPBuffers:	
  1079                           ; 1 bytes @ 0x0
  1080                           
  1081                           
  1082                           ; 1 bytes @ 0x0
  1083  005A                     	ds	1
  1084  005B                     PrepareTxBuffer@x:	
  1085  005B                     IsUsbDataAvaialble@InterfaceNo:	
  1086                           ; 1 bytes @ 0x1
  1087                           
  1088                           
  1089                           ; 1 bytes @ 0x1
  1090  005B                     	ds	1
  1091  005C                     PrepareTxBuffer@y:	
  1092  005C                     NES_read_pad@output:	
  1093                           ; 1 bytes @ 0x2
  1094                           
  1095                           
  1096                           ; 1 bytes @ 0x2
  1097  005C                     	ds	1
  1098  005D                     PrepareTxBuffer@n:	
  1099  005D                     ReArmInterface@InterfaceNo:	
  1100                           ; 1 bytes @ 0x3
  1101                           
  1102  005D                     HIDSend@InterfaceNo:	
  1103                           ; 1 bytes @ 0x3
  1104                           
  1105  005D                     NES_read_pad@i:	
  1106                           ; 1 bytes @ 0x3
  1107                           
  1108                           
  1109                           ; 2 bytes @ 0x3
  1110  005D                     	ds	1
  1111  005E                     ??_CheckUsb:	
  1112  005E                     PrepareTxBuffer@gamepad_reading:	
  1113                           ; 1 bytes @ 0x4
  1114                           
  1115                           
  1116                           ; 1 bytes @ 0x4
  1117  005E                     	ds	1
  1118  005F                     ??_ProcessIO:	
  1119                           
  1120                           ; 1 bytes @ 0x5
  1121  005F                     	ds	1
  1122  0060                     ProcessIO@reading:	
  1123                           
  1124                           ; 1 bytes @ 0x6
  1125  0060                     	ds	1
  1126  0061                     ??_main:	
  1127                           
  1128                           	psect	maintext
  1129  076A                     __pmaintext:	
  1130                           ; 1 bytes @ 0x7
  1131 ;;
  1132 ;;Main: autosize = 0, tempsize = 0, incstack = 0, save=0
  1133 ;;
  1134 ;; *************** function _main *****************
  1135 ;; Defined at:
  1136 ;;		line 146 in file "Source/Main.c"
  1137 ;; Parameters:    Size  Location     Type
  1138 ;;		None
  1139 ;; Auto vars:     Size  Location     Type
  1140 ;;		None
  1141 ;; Return value:  Size  Location     Type
  1142 ;;                  1    wreg      void 
  1143 ;; Registers used:
  1144 ;;		wreg, fsr1l, fsr1h, status,2, status,0, pclath, cstack
  1145 ;; Tracked objects:
  1146 ;;		On entry : B1F/0
  1147 ;;		On exit  : 0/0
  1148 ;;		Unchanged: 0/0
  1149 ;; Data sizes:     COMMON   BANK0   BANK1   BANK2   BANK3   BANK4   BANK5   BANK6   BANK7   BANK8   BANK9  BANK10  BANK1
      +1  BANK12
  1150 ;;      Params:         0       0       0       0       0       0       0       0       0       0       0       0       
      +0       0
  1151 ;;      Locals:         0       0       0       0       0       0       0       0       0       0       0       0       
      +0       0
  1152 ;;      Temps:          0       0       0       0       0       0       0       0       0       0       0       0       
      +0       0
  1153 ;;      Totals:         0       0       0       0       0       0       0       0       0       0       0       0       
      +0       0
  1154 ;;Total ram usage:        0 bytes
  1155 ;; Hardware stack levels required when called:    9
  1156 ;; This function calls:
  1157 ;;		_EnableInterrupts
  1158 ;;		_EnableUSBModule
  1159 ;;		_InitializeSystem
  1160 ;;		_InitializeUSB
  1161 ;;		_NES_GPIO_Initialize
  1162 ;;		_ProcessIO
  1163 ;; This function is called by:
  1164 ;;		Startup code after reset
  1165 ;; This function uses a non-reentrant model
  1166 ;;
  1167                           
  1168                           
  1169                           ;psect for function _main
  1170  076A                     _main:	
  1171  076A                     l2445:	
  1172                           ;incstack = 0
  1173                           ; Regs used in _main: [wreg+fsr1l+fsr1h+status,2+status,0+pclath+cstack]
  1174                           
  1175  076A  3187  27C2  3187   	fcall	_InitializeSystem
  1176  076D                     l2447:	
  1177  076D  3187  27EC  3187   	fcall	_NES_GPIO_Initialize
  1178  0770                     l2449:	
  1179  0770  3187  27B2  3187   	fcall	_InitializeUSB
  1180  0773                     l2451:	
  1181  0773  3187  2750  3187   	fcall	_EnableUSBModule
  1182  0776                     l2453:	
  1183  0776  3187  27F7  3187   	fcall	_EnableInterrupts
  1184  0779                     l2455:	
  1185  0779  3186  267B  3187   	fcall	_ProcessIO
  1186  077C  2F79               	goto	l2455
  1187  077D  3180  2810         	ljmp	start
  1188  077F                     __end_of_main:	
  1189                           
  1190                           	psect	text1
  1191  067B                     __ptext1:	
  1192 ;; *************** function _ProcessIO *****************
  1193 ;; Defined at:
  1194 ;;		line 129 in file "Source/Main.c"
  1195 ;; Parameters:    Size  Location     Type
  1196 ;;		None
  1197 ;; Auto vars:     Size  Location     Type
  1198 ;;  reading         1    6[BANK0 ] unsigned char 
  1199 ;; Return value:  Size  Location     Type
  1200 ;;                  1    wreg      void 
  1201 ;; Registers used:
  1202 ;;		wreg, fsr1l, fsr1h, status,2, status,0, pclath, cstack
  1203 ;; Tracked objects:
  1204 ;;		On entry : 0/0
  1205 ;;		On exit  : 0/0
  1206 ;;		Unchanged: 0/0
  1207 ;; Data sizes:     COMMON   BANK0   BANK1   BANK2   BANK3   BANK4   BANK5   BANK6   BANK7   BANK8   BANK9  BANK10  BANK1
      +1  BANK12
  1208 ;;      Params:         0       0       0       0       0       0       0       0       0       0       0       0       
      +0       0
  1209 ;;      Locals:         0       1       0       0       0       0       0       0       0       0       0       0       
      +0       0
  1210 ;;      Temps:          0       1       0       0       0       0       0       0       0       0       0       0       
      +0       0
  1211 ;;      Totals:         0       2       0       0       0       0       0       0       0       0       0       0       
      +0       0
  1212 ;;Total ram usage:        2 bytes
  1213 ;; Hardware stack levels used:    1
  1214 ;; Hardware stack levels required when called:    8
  1215 ;; This function calls:
  1216 ;;		_CheckUsb
  1217 ;;		_HIDSend
  1218 ;;		_NES_read_pad
  1219 ;;		_PrepareTxBuffer
  1220 ;; This function is called by:
  1221 ;;		_main
  1222 ;; This function uses a non-reentrant model
  1223 ;;
  1224                           
  1225                           
  1226                           ;psect for function _ProcessIO
  1227  067B                     _ProcessIO:	
  1228  067B                     l2391:	
  1229                           ;incstack = 0
  1230                           ; Regs used in _ProcessIO: [wreg+fsr1l+fsr1h+status,2+status,0+pclath+cstack]
  1231                           
  1232  067B  3005               	movlw	5
  1233  067C  0020               	movlb	0	; select bank0
  1234  067D  063F               	xorwf	_DeviceState,w
  1235  067E  1D03               	btfss	3,2
  1236  067F  2E81               	goto	u2591
  1237  0680  2E82               	goto	u2590
  1238  0681                     u2591:	
  1239  0681  2E8A               	goto	l2397
  1240  0682                     u2590:	
  1241  0682                     l2393:	
  1242  0682  003D               	movlb	29	; select bank29
  1243  0683  188E               	btfsc	14,1	;volatile
  1244  0684  2E86               	goto	u2601
  1245  0685  2E87               	goto	u2600
  1246  0686                     u2601:	
  1247  0686  2E8A               	goto	l2397
  1248  0687                     u2600:	
  1249  0687                     l2395:	
  1250  0687  3187  2791  3186   	fcall	_CheckUsb
  1251  068A                     l2397:	
  1252  068A  3186  260B  3186   	fcall	_NES_read_pad
  1253  068D  0020               	movlb	0	; select bank0
  1254  068E  00DF               	movwf	??_ProcessIO
  1255  068F  085F               	movf	??_ProcessIO,w
  1256  0690  00E0               	movwf	ProcessIO@reading
  1257  0691                     l2399:	
  1258  0691  0860               	movf	ProcessIO@reading,w
  1259  0692  063E               	xorwf	_last_gamepad_reading,w
  1260  0693  1D03               	skipz
  1261  0694  2E96               	goto	u2611
  1262  0695  2E97               	goto	u2610
  1263  0696                     u2611:	
  1264  0696  2E98               	goto	l2403
  1265  0697                     u2610:	
  1266  0697  2EA5               	goto	l107
  1267  0698                     l2403:	
  1268  0698  0860               	movf	ProcessIO@reading,w
  1269  0699  3185  25BF  3186   	fcall	_PrepareTxBuffer
  1270  069C  3000               	movlw	0
  1271  069D  3185  250A  3186   	fcall	_HIDSend
  1272  06A0                     l2405:	
  1273  06A0  0020               	movlb	0	; select bank0
  1274  06A1  0860               	movf	ProcessIO@reading,w
  1275  06A2  00DF               	movwf	??_ProcessIO
  1276  06A3  085F               	movf	??_ProcessIO,w
  1277  06A4  00BE               	movwf	_last_gamepad_reading
  1278  06A5                     l107:	
  1279  06A5  0008               	return
  1280  06A6                     __end_of_ProcessIO:	
  1281                           
  1282                           	psect	text2
  1283  05BF                     __ptext2:	
  1284 ;; *************** function _PrepareTxBuffer *****************
  1285 ;; Defined at:
  1286 ;;		line 69 in file "Source/Main.c"
  1287 ;; Parameters:    Size  Location     Type
  1288 ;;  gamepad_read    1    wreg     unsigned char 
  1289 ;; Auto vars:     Size  Location     Type
  1290 ;;  gamepad_read    1    4[BANK0 ] unsigned char 
  1291 ;;  y               1    2[BANK0 ] char 
  1292 ;;  x               1    1[BANK0 ] char 
  1293 ;;  n               1    3[BANK0 ] unsigned char 
  1294 ;; Return value:  Size  Location     Type
  1295 ;;                  1    wreg      void 
  1296 ;; Registers used:
  1297 ;;		wreg, fsr1l, fsr1h, status,2, status,0
  1298 ;; Tracked objects:
  1299 ;;		On entry : 0/0
  1300 ;;		On exit  : 0/0
  1301 ;;		Unchanged: 0/0
  1302 ;; Data sizes:     COMMON   BANK0   BANK1   BANK2   BANK3   BANK4   BANK5   BANK6   BANK7   BANK8   BANK9  BANK10  BANK1
      +1  BANK12
  1303 ;;      Params:         0       0       0       0       0       0       0       0       0       0       0       0       
      +0       0
  1304 ;;      Locals:         0       4       0       0       0       0       0       0       0       0       0       0       
      +0       0
  1305 ;;      Temps:          0       1       0       0       0       0       0       0       0       0       0       0       
      +0       0
  1306 ;;      Totals:         0       5       0       0       0       0       0       0       0       0       0       0       
      +0       0
  1307 ;;Total ram usage:        5 bytes
  1308 ;; Hardware stack levels used:    1
  1309 ;; Hardware stack levels required when called:    6
  1310 ;; This function calls:
  1311 ;;		Nothing
  1312 ;; This function is called by:
  1313 ;;		_ProcessIO
  1314 ;; This function uses a non-reentrant model
  1315 ;;
  1316                           
  1317                           
  1318                           ;psect for function _PrepareTxBuffer
  1319  05BF                     _PrepareTxBuffer:	
  1320                           
  1321                           ;incstack = 0
  1322                           ; Regs used in _PrepareTxBuffer: [wreg+fsr1l+fsr1h+status,2+status,0]
  1323                           ;PrepareTxBuffer@gamepad_reading stored from wreg
  1324  05BF  0020               	movlb	0	; select bank0
  1325  05C0  00DE               	movwf	PrepareTxBuffer@gamepad_reading
  1326  05C1                     l2141:	
  1327                           
  1328                           ;Source/Main.c: 69:         HIDTxBuffer[1] = y;;Source/Main.c: 70:         HIDTxBuffer[2
      +                          ] = gamepad_reading & 0x0F;;Source/Main.c: 71:     };Source/Main.c: 74:         do { POR
      +                          TAbits.RA4 = 0; } while(0);
  1329  05C1  01DD               	clrf	PrepareTxBuffer@n
  1330  05C2                     l2147:	
  1331                           
  1332                           ;Source/Main.c: 75:     };Source/Main.c: 76: }
  1333  05C2  085D               	movf	PrepareTxBuffer@n,w
  1334  05C3  3E51               	addlw	(low (_HIDTxBuffer| 0))& (0+255)
  1335  05C4  0086               	movwf	6
  1336  05C5  0187               	clrf	7
  1337  05C6  0181               	clrf	1
  1338  05C7                     l2149:	
  1339                           
  1340                           ;Source/Main.c: 77: 
  1341  05C7  3001               	movlw	1
  1342  05C8  00DA               	movwf	??_PrepareTxBuffer
  1343  05C9  085A               	movf	??_PrepareTxBuffer,w
  1344  05CA  07DD               	addwf	PrepareTxBuffer@n,f
  1345  05CB                     l2151:	
  1346  05CB  3003               	movlw	3
  1347  05CC  025D               	subwf	PrepareTxBuffer@n,w
  1348  05CD  1C03               	skipc
  1349  05CE  2DD0               	goto	u2121
  1350  05CF  2DD1               	goto	u2120
  1351  05D0                     u2121:	
  1352  05D0  2DC2               	goto	l2147
  1353  05D1                     u2120:	
  1354  05D1                     l2153:	
  1355                           
  1356                           ;Source/Main.c: 79: {
  1357  05D1  085E               	movf	PrepareTxBuffer@gamepad_reading,w
  1358  05D2  1903               	btfsc	3,2
  1359  05D3  2DD5               	goto	u2131
  1360  05D4  2DD6               	goto	u2130
  1361  05D5                     u2131:	
  1362  05D5  2E09               	goto	l93
  1363  05D6                     u2130:	
  1364  05D6                     l84:	
  1365                           ;Source/Main.c: 80: ;Source/Main.c: 81: 
  1366                           
  1367  05D6  160C               	bsf	12,4	;volatile
  1368  05D7                     l2155:	
  1369                           
  1370                           ;Source/Main.c: 83: 
  1371  05D7  01DB               	clrf	PrepareTxBuffer@x
  1372                           
  1373                           ;Source/Main.c: 84: static void CheckUsb(void)
  1374  05D8  01DC               	clrf	PrepareTxBuffer@y
  1375  05D9                     l2157:	
  1376                           
  1377                           ;Source/Main.c: 86:     if(IsUsbDataAvaialble(0x00) > 0 )
  1378  05D9  1E5E               	btfss	PrepareTxBuffer@gamepad_reading,4
  1379  05DA  2DDC               	goto	u2141
  1380  05DB  2DDD               	goto	u2140
  1381  05DC                     u2141:	
  1382  05DC  2DE2               	goto	l86
  1383  05DD                     u2140:	
  1384  05DD                     l2159:	
  1385                           
  1386                           ;Source/Main.c: 87:     {;Source/Main.c: 88:         ProcessIncomingData();
  1387  05DD  3080               	movlw	128
  1388  05DE  00DA               	movwf	??_PrepareTxBuffer
  1389  05DF  085A               	movf	??_PrepareTxBuffer,w
  1390  05E0  00DC               	movwf	PrepareTxBuffer@y
  1391                           
  1392                           ;Source/Main.c: 89:         ReArmInterface(0x00);
  1393  05E1  2DEA               	goto	l2163
  1394  05E2                     l86:	
  1395                           ;Source/Main.c: 90:     }
  1396                           
  1397  05E2  1EDE               	btfss	PrepareTxBuffer@gamepad_reading,5
  1398  05E3  2DE5               	goto	u2151
  1399  05E4  2DE6               	goto	u2150
  1400  05E5                     u2151:	
  1401  05E5  2DEA               	goto	l2163
  1402  05E6                     u2150:	
  1403  05E6                     l2161:	
  1404                           
  1405                           ;Source/Main.c: 91: };Source/Main.c: 92: 
  1406  05E6  307F               	movlw	127
  1407  05E7  00DA               	movwf	??_PrepareTxBuffer
  1408  05E8  085A               	movf	??_PrepareTxBuffer,w
  1409  05E9  00DC               	movwf	PrepareTxBuffer@y
  1410  05EA                     l2163:	
  1411                           
  1412                           ;Source/Main.c: 95: 
  1413  05EA  1F5E               	btfss	PrepareTxBuffer@gamepad_reading,6
  1414  05EB  2DED               	goto	u2161
  1415  05EC  2DEE               	goto	u2160
  1416  05ED                     u2161:	
  1417  05ED  2DF3               	goto	l89
  1418  05EE                     u2160:	
  1419  05EE                     l2165:	
  1420                           
  1421                           ;Source/Main.c: 96:     if (((DeviceState == 0x05) && (UCONbits.SUSPND==0))) CheckUsb();
      +                          ;Source/Main.c: 97: 
  1422  05EE  3080               	movlw	128
  1423  05EF  00DA               	movwf	??_PrepareTxBuffer
  1424  05F0  085A               	movf	??_PrepareTxBuffer,w
  1425  05F1  00DB               	movwf	PrepareTxBuffer@x
  1426                           
  1427                           ;Source/Main.c: 98: 
  1428  05F2  2DFB               	goto	l90
  1429  05F3                     l89:	
  1430                           ;Source/Main.c: 99:     uint8_t reading = NES_read_pad();
  1431                           
  1432  05F3  1FDE               	btfss	PrepareTxBuffer@gamepad_reading,7
  1433  05F4  2DF6               	goto	u2171
  1434  05F5  2DF7               	goto	u2170
  1435  05F6                     u2171:	
  1436  05F6  2DFB               	goto	l90
  1437  05F7                     u2170:	
  1438  05F7                     l2167:	
  1439                           
  1440                           ;Source/Main.c: 100:     if (reading == last_gamepad_reading ) return;;Source/Main.c: 10
      +                          1: 
  1441  05F7  307F               	movlw	127
  1442  05F8  00DA               	movwf	??_PrepareTxBuffer
  1443  05F9  085A               	movf	??_PrepareTxBuffer,w
  1444  05FA  00DB               	movwf	PrepareTxBuffer@x
  1445  05FB                     l90:	
  1446                           
  1447                           ;Source/Main.c: 104:     HIDSend(0x00);
  1448  05FB  085B               	movf	PrepareTxBuffer@x,w
  1449  05FC  00DA               	movwf	??_PrepareTxBuffer
  1450  05FD  085A               	movf	??_PrepareTxBuffer,w
  1451  05FE  00D1               	movwf	_HIDTxBuffer	;volatile
  1452                           
  1453                           ;Source/Main.c: 105: 
  1454  05FF  085C               	movf	PrepareTxBuffer@y,w
  1455  0600  00DA               	movwf	??_PrepareTxBuffer
  1456  0601  085A               	movf	??_PrepareTxBuffer,w
  1457  0602  00D2               	movwf	_HIDTxBuffer+1	;volatile
  1458  0603                     l2169:	
  1459                           
  1460                           ;Source/Main.c: 106: 
  1461  0603  085E               	movf	PrepareTxBuffer@gamepad_reading,w
  1462  0604  390F               	andlw	15
  1463  0605  00DA               	movwf	??_PrepareTxBuffer
  1464  0606  085A               	movf	??_PrepareTxBuffer,w
  1465  0607  00D3               	movwf	_HIDTxBuffer+2	;volatile
  1466                           
  1467                           ;Source/Main.c: 107:     last_gamepad_reading = reading;
  1468  0608  2E0A               	goto	l95
  1469  0609                     l93:	
  1470                           ;Source/Main.c: 109: ;Source/Main.c: 110: void main(void)
  1471                           
  1472  0609  120C               	bcf	12,4	;volatile
  1473  060A                     l95:	
  1474  060A  0008               	return
  1475  060B                     __end_of_PrepareTxBuffer:	
  1476                           
  1477                           	psect	text3
  1478  060B                     __ptext3:	
  1479 ;; *************** function _NES_read_pad *****************
  1480 ;; Defined at:
  1481 ;;		line 52 in file "Source/nes_gamepad.c"
  1482 ;; Parameters:    Size  Location     Type
  1483 ;;		None
  1484 ;; Auto vars:     Size  Location     Type
  1485 ;;  i               2    3[BANK0 ] int 
  1486 ;;  output          1    2[BANK0 ] unsigned char 
  1487 ;; Return value:  Size  Location     Type
  1488 ;;                  1    wreg      unsigned char 
  1489 ;; Registers used:
  1490 ;;		wreg, status,2, status,0
  1491 ;; Tracked objects:
  1492 ;;		On entry : 0/0
  1493 ;;		On exit  : 0/0
  1494 ;;		Unchanged: 0/0
  1495 ;; Data sizes:     COMMON   BANK0   BANK1   BANK2   BANK3   BANK4   BANK5   BANK6   BANK7   BANK8   BANK9  BANK10  BANK1
      +1  BANK12
  1496 ;;      Params:         0       0       0       0       0       0       0       0       0       0       0       0       
      +0       0
  1497 ;;      Locals:         0       3       0       0       0       0       0       0       0       0       0       0       
      +0       0
  1498 ;;      Temps:          0       2       0       0       0       0       0       0       0       0       0       0       
      +0       0
  1499 ;;      Totals:         0       5       0       0       0       0       0       0       0       0       0       0       
      +0       0
  1500 ;;Total ram usage:        5 bytes
  1501 ;; Hardware stack levels used:    1
  1502 ;; Hardware stack levels required when called:    6
  1503 ;; This function calls:
  1504 ;;		Nothing
  1505 ;; This function is called by:
  1506 ;;		_ProcessIO
  1507 ;; This function uses a non-reentrant model
  1508 ;;
  1509                           
  1510                           
  1511                           ;psect for function _NES_read_pad
  1512  060B                     _NES_read_pad:	
  1513  060B                     l437:	
  1514                           ;incstack = 0
  1515                           ; Regs used in _NES_read_pad: [wreg+status,2+status,0]
  1516                           ;Source/nes_gamepad.c: 73:     do { LATCbits.LATC4 = 1; } while(0);
  1517                           
  1518  060B  0022               	movlb	2	; select bank2
  1519  060C  160E               	bsf	14,4	;volatile
  1520  060D                     l2177:	
  1521                           
  1522                           ;Source/nes_gamepad.c: 74:     _delay((unsigned long)((12)*(48000000L/4000000.0)));
  1523  060D  3030               	movlw	48
  1524  060E                     u2697:	
  1525  060E  0B89               	decfsz	9,f
  1526  060F  2E0E               	goto	u2697
  1527  0610                     l2179:	
  1528  0610  0022               	movlb	2	; select bank2
  1529  0611  120E               	bcf	14,4	;volatile
  1530  0612                     l2181:	
  1531                           
  1532                           ;Source/nes_gamepad.c: 79:     uint8_t output = 0x00;
  1533  0612  0020               	movlb	0	; select bank0
  1534  0613  01DC               	clrf	NES_read_pad@output
  1535  0614                     l2183:	
  1536                           
  1537                           ;Source/nes_gamepad.c: 80:     int i;;Source/nes_gamepad.c: 81:     for ( i = 0; i < 8; 
      +                          i++)
  1538  0614  01DD               	clrf	NES_read_pad@i
  1539  0615  01DE               	clrf	NES_read_pad@i+1
  1540  0616                     l2187:	
  1541                           
  1542                           ;Source/nes_gamepad.c: 82:     {;Source/nes_gamepad.c: 83:         output |= !( (PORTCbi
      +                          ts.RC3 & 0x1)) << i;
  1543  0616  1003               	clrc
  1544  0617  0020               	movlb	0	; select bank0
  1545  0618  1D8E               	btfss	14,3	;volatile
  1546  0619  1403               	setc
  1547  061A  3000               	movlw	0
  1548  061B  3D09               	addwfc	9,w
  1549  061C  00DA               	movwf	??_NES_read_pad
  1550  061D  0A5D               	incf	NES_read_pad@i,w
  1551  061E  2E20               	goto	u2194
  1552  061F                     u2195:	
  1553  061F  35DA               	lslf	??_NES_read_pad,f
  1554  0620                     u2194:	
  1555  0620  0B89               	decfsz	9,f
  1556  0621  2E1F               	goto	u2195
  1557  0622  085A               	movf	??_NES_read_pad,w
  1558  0623  00DB               	movwf	??_NES_read_pad+1
  1559  0624  085B               	movf	??_NES_read_pad+1,w
  1560  0625  04DC               	iorwf	NES_read_pad@output,f
  1561  0626                     l2189:	
  1562  0626  0022               	movlb	2	; select bank2
  1563  0627  168E               	bsf	14,5	;volatile
  1564  0628                     l2191:	
  1565                           
  1566                           ;Source/nes_gamepad.c: 85:         _delay((unsigned long)((6)*(48000000L/4000000.0)));
  1567  0628  3018               	movlw	24
  1568  0629                     u2707:	
  1569  0629  0B89               	decfsz	9,f
  1570  062A  2E29               	goto	u2707
  1571  062B                     l2193:	
  1572  062B  0022               	movlb	2	; select bank2
  1573  062C  128E               	bcf	14,5	;volatile
  1574  062D                     l2195:	
  1575                           
  1576                           ;Source/nes_gamepad.c: 87:         _delay((unsigned long)((6)*(48000000L/4000000.0)));
  1577  062D  3018               	movlw	24
  1578  062E                     u2717:	
  1579  062E  0B89               	decfsz	9,f
  1580  062F  2E2E               	goto	u2717
  1581  0630                     l2197:	
  1582                           
  1583                           ;Source/nes_gamepad.c: 88:     }
  1584  0630  3001               	movlw	1
  1585  0631  0020               	movlb	0	; select bank0
  1586  0632  07DD               	addwf	NES_read_pad@i,f
  1587  0633  3000               	movlw	0
  1588  0634  3DDE               	addwfc	NES_read_pad@i+1,f
  1589  0635                     l2199:	
  1590  0635  085E               	movf	NES_read_pad@i+1,w
  1591  0636  3A80               	xorlw	128
  1592  0637  00DA               	movwf	??_NES_read_pad
  1593  0638  3080               	movlw	128
  1594  0639  025A               	subwf	??_NES_read_pad,w
  1595  063A  1D03               	skipz
  1596  063B  2E3E               	goto	u2205
  1597  063C  3008               	movlw	8
  1598  063D  025D               	subwf	NES_read_pad@i,w
  1599  063E                     u2205:	
  1600  063E  1C03               	skipc
  1601  063F  2E41               	goto	u2201
  1602  0640  2E42               	goto	u2200
  1603  0641                     u2201:	
  1604  0641  2E16               	goto	l2187
  1605  0642                     u2200:	
  1606  0642                     l2201:	
  1607                           
  1608                           ;Source/nes_gamepad.c: 90:     return output;
  1609  0642  0020               	movlb	0	; select bank0
  1610  0643  085C               	movf	NES_read_pad@output,w
  1611  0644                     l447:	
  1612  0644  0008               	return
  1613  0645                     __end_of_NES_read_pad:	
  1614                           
  1615                           	psect	text4
  1616  050A                     __ptext4:	
  1617 ;; *************** function _HIDSend *****************
  1618 ;; Defined at:
  1619 ;;		line 216 in file "Source/Usb.c"
  1620 ;; Parameters:    Size  Location     Type
  1621 ;;  InterfaceNo     1    wreg     unsigned char 
  1622 ;; Auto vars:     Size  Location     Type
  1623 ;;  InterfaceNo     1    3[BANK0 ] unsigned char 
  1624 ;; Return value:  Size  Location     Type
  1625 ;;                  1    wreg      void 
  1626 ;; Registers used:
  1627 ;;		wreg, fsr1l, fsr1h, status,2, status,0
  1628 ;; Tracked objects:
  1629 ;;		On entry : 0/0
  1630 ;;		On exit  : 0/0
  1631 ;;		Unchanged: 0/0
  1632 ;; Data sizes:     COMMON   BANK0   BANK1   BANK2   BANK3   BANK4   BANK5   BANK6   BANK7   BANK8   BANK9  BANK10  BANK1
      +1  BANK12
  1633 ;;      Params:         0       0       0       0       0       0       0       0       0       0       0       0       
      +0       0
  1634 ;;      Locals:         0       1       0       0       0       0       0       0       0       0       0       0       
      +0       0
  1635 ;;      Temps:          0       3       0       0       0       0       0       0       0       0       0       0       
      +0       0
  1636 ;;      Totals:         0       4       0       0       0       0       0       0       0       0       0       0       
      +0       0
  1637 ;;Total ram usage:        4 bytes
  1638 ;; Hardware stack levels used:    1
  1639 ;; Hardware stack levels required when called:    6
  1640 ;; This function calls:
  1641 ;;		Nothing
  1642 ;; This function is called by:
  1643 ;;		_ProcessIO
  1644 ;; This function uses a non-reentrant model
  1645 ;;
  1646                           
  1647                           
  1648                           ;psect for function _HIDSend
  1649  050A                     _HIDSend:	
  1650                           
  1651                           ;incstack = 0
  1652                           ; Regs used in _HIDSend: [wreg+fsr1l+fsr1h+status,2+status,0]
  1653                           ;HIDSend@InterfaceNo stored from wreg
  1654  050A  0020               	movlb	0	; select bank0
  1655  050B  00DD               	movwf	HIDSend@InterfaceNo
  1656  050C                     l2205:	
  1657                           
  1658                           ;Source/Usb.c: 216: void HIDSend(uint8_t InterfaceNo);Source/Usb.c: 217: {;Source/Usb.c:
      +                           219:     if (Interfaces[InterfaceNo + 1].Input.Stat & 0x80) return;
  1659  050C  085D               	movf	HIDSend@InterfaceNo,w
  1660  050D  00DA               	movwf	??_HIDSend
  1661  050E  3002               	movlw	2
  1662  050F                     u2215:	
  1663  050F  35DA               	lslf	??_HIDSend,f
  1664  0510  3EFF               	addlw	-1
  1665  0511  1D03               	skipz
  1666  0512  2D0F               	goto	u2215
  1667  0513  355A               	lslf	??_HIDSend,w
  1668  0514  3E2C               	addlw	44
  1669  0515  0086               	movwf	6
  1670  0516  0187               	clrf	7
  1671  0517  1F81               	btfss	1,7
  1672  0518  2D1A               	goto	u2221
  1673  0519  2D1B               	goto	u2220
  1674  051A                     u2221:	
  1675  051A  2D1C               	goto	l2209
  1676  051B                     u2220:	
  1677  051B  2D64               	goto	l218
  1678  051C                     l2209:	
  1679                           
  1680                           ;Source/Usb.c: 223:     Interfaces[InterfaceNo + 1].Input.Cnt = Buffers[InterfaceNo * 2]
      +                          .Size;
  1681  051C  085D               	movf	HIDSend@InterfaceNo,w
  1682  051D  00DA               	movwf	??_HIDSend
  1683  051E  3001               	movlw	1
  1684  051F                     u2235:	
  1685  051F  35DA               	lslf	??_HIDSend,f
  1686  0520  3EFF               	addlw	-1
  1687  0521  1D03               	skipz
  1688  0522  2D1F               	goto	u2235
  1689  0523  355A               	lslf	??_HIDSend,w
  1690  0524  3E61               	addlw	(low (_Buffers| 0))& (0+255)
  1691  0525  0086               	movwf	6
  1692  0526  0187               	clrf	7
  1693  0527  0801               	movf	1,w
  1694  0528  00DB               	movwf	??_HIDSend+1
  1695  0529  085D               	movf	HIDSend@InterfaceNo,w
  1696  052A  00DC               	movwf	??_HIDSend+2
  1697  052B  3002               	movlw	2
  1698  052C                     u2245:	
  1699  052C  35DC               	lslf	??_HIDSend+2,f
  1700  052D  3EFF               	addlw	-1
  1701  052E  1D03               	skipz
  1702  052F  2D2C               	goto	u2245
  1703  0530  355C               	lslf	??_HIDSend+2,w
  1704  0531  3E2D               	addlw	45
  1705  0532  0086               	movwf	6
  1706  0533  0187               	clrf	7
  1707  0534  085B               	movf	??_HIDSend+1,w
  1708  0535  0081               	movwf	1
  1709                           
  1710                           ;Source/Usb.c: 225:     if(Interfaces[InterfaceNo + 1].Input.Stat & 0x40)
  1711  0536  085D               	movf	HIDSend@InterfaceNo,w
  1712  0537  00DA               	movwf	??_HIDSend
  1713  0538  3002               	movlw	2
  1714  0539                     u2255:	
  1715  0539  35DA               	lslf	??_HIDSend,f
  1716  053A  3EFF               	addlw	-1
  1717  053B  1D03               	skipz
  1718  053C  2D39               	goto	u2255
  1719  053D  355A               	lslf	??_HIDSend,w
  1720  053E  3E2C               	addlw	44
  1721  053F  0086               	movwf	6
  1722  0540  0187               	clrf	7
  1723  0541  1F01               	btfss	1,6
  1724  0542  2D44               	goto	u2261
  1725  0543  2D45               	goto	u2260
  1726  0544                     u2261:	
  1727  0544  2D55               	goto	l2213
  1728  0545                     u2260:	
  1729  0545                     l2211:	
  1730                           
  1731                           ;Source/Usb.c: 226:         Interfaces[InterfaceNo + 1].Input.Stat = 0x80 | 0x08;
  1732  0545  3088               	movlw	136
  1733  0546  00DA               	movwf	??_HIDSend
  1734  0547  085D               	movf	HIDSend@InterfaceNo,w
  1735  0548  00DB               	movwf	??_HIDSend+1
  1736  0549  3002               	movlw	2
  1737  054A                     u2275:	
  1738  054A  35DB               	lslf	??_HIDSend+1,f
  1739  054B  3EFF               	addlw	-1
  1740  054C  1D03               	skipz
  1741  054D  2D4A               	goto	u2275
  1742  054E  355B               	lslf	??_HIDSend+1,w
  1743  054F  3E2C               	addlw	44
  1744  0550  0086               	movwf	6
  1745  0551  0187               	clrf	7
  1746  0552  085A               	movf	??_HIDSend,w
  1747  0553  0081               	movwf	1
  1748  0554  2D64               	goto	l218
  1749  0555                     l2213:	
  1750                           
  1751                           ;Source/Usb.c: 228:         Interfaces[InterfaceNo + 1].Input.Stat = 0x80 | 0x40 | 0x08;
  1752  0555  30C8               	movlw	200
  1753  0556  00DA               	movwf	??_HIDSend
  1754  0557  085D               	movf	HIDSend@InterfaceNo,w
  1755  0558  00DB               	movwf	??_HIDSend+1
  1756  0559  3002               	movlw	2
  1757  055A                     u2285:	
  1758  055A  35DB               	lslf	??_HIDSend+1,f
  1759  055B  3EFF               	addlw	-1
  1760  055C  1D03               	skipz
  1761  055D  2D5A               	goto	u2285
  1762  055E  355B               	lslf	??_HIDSend+1,w
  1763  055F  3E2C               	addlw	44
  1764  0560  0086               	movwf	6
  1765  0561  0187               	clrf	7
  1766  0562  085A               	movf	??_HIDSend,w
  1767  0563  0081               	movwf	1
  1768  0564                     l218:	
  1769  0564  0008               	return
  1770  0565                     __end_of_HIDSend:	
  1771                           
  1772                           	psect	text5
  1773  0791                     __ptext5:	
  1774 ;; *************** function _CheckUsb *****************
  1775 ;; Defined at:
  1776 ;;		line 120 in file "Source/Main.c"
  1777 ;; Parameters:    Size  Location     Type
  1778 ;;		None
  1779 ;; Auto vars:     Size  Location     Type
  1780 ;;		None
  1781 ;; Return value:  Size  Location     Type
  1782 ;;                  1    wreg      void 
  1783 ;; Registers used:
  1784 ;;		wreg, fsr1l, fsr1h, status,2, status,0, pclath, cstack
  1785 ;; Tracked objects:
  1786 ;;		On entry : 0/0
  1787 ;;		On exit  : 0/0
  1788 ;;		Unchanged: 0/0
  1789 ;; Data sizes:     COMMON   BANK0   BANK1   BANK2   BANK3   BANK4   BANK5   BANK6   BANK7   BANK8   BANK9  BANK10  BANK1
      +1  BANK12
  1790 ;;      Params:         0       0       0       0       0       0       0       0       0       0       0       0       
      +0       0
  1791 ;;      Locals:         0       0       0       0       0       0       0       0       0       0       0       0       
      +0       0
  1792 ;;      Temps:          0       0       0       0       0       0       0       0       0       0       0       0       
      +0       0
  1793 ;;      Totals:         0       0       0       0       0       0       0       0       0       0       0       0       
      +0       0
  1794 ;;Total ram usage:        0 bytes
  1795 ;; Hardware stack levels used:    1
  1796 ;; Hardware stack levels required when called:    7
  1797 ;; This function calls:
  1798 ;;		_IsUsbDataAvaialble
  1799 ;;		_ProcessIncomingData
  1800 ;;		_ReArmInterface
  1801 ;; This function is called by:
  1802 ;;		_ProcessIO
  1803 ;; This function uses a non-reentrant model
  1804 ;;
  1805                           
  1806                           
  1807                           ;psect for function _CheckUsb
  1808  0791                     _CheckUsb:	
  1809  0791                     l2171:	
  1810                           ;incstack = 0
  1811                           ; Regs used in _CheckUsb: [wreg+fsr1l+fsr1h+status,2+status,0+pclath+cstack]
  1812                           
  1813  0791  3000               	movlw	0
  1814  0792  3186  26D0  3187   	fcall	_IsUsbDataAvaialble
  1815  0795  3A00               	xorlw	0
  1816  0796  1903               	skipnz
  1817  0797  2F99               	goto	u2181
  1818  0798  2F9A               	goto	u2180
  1819  0799                     u2181:	
  1820  0799  2FA1               	goto	l102
  1821  079A                     u2180:	
  1822  079A                     l2173:	
  1823  079A  3187  27FF  3187   	fcall	_ProcessIncomingData
  1824  079D                     l2175:	
  1825  079D  3000               	movlw	0
  1826  079E  3185  2565  3187   	fcall	_ReArmInterface
  1827  07A1                     l102:	
  1828  07A1  0008               	return
  1829  07A2                     __end_of_CheckUsb:	
  1830                           
  1831                           	psect	text6
  1832  0565                     __ptext6:	
  1833 ;; *************** function _ReArmInterface *****************
  1834 ;; Defined at:
  1835 ;;		line 196 in file "Source/Usb.c"
  1836 ;; Parameters:    Size  Location     Type
  1837 ;;  InterfaceNo     1    wreg     unsigned char 
  1838 ;; Auto vars:     Size  Location     Type
  1839 ;;  InterfaceNo     1    3[BANK0 ] unsigned char 
  1840 ;; Return value:  Size  Location     Type
  1841 ;;                  1    wreg      void 
  1842 ;; Registers used:
  1843 ;;		wreg, fsr1l, fsr1h, status,2, status,0
  1844 ;; Tracked objects:
  1845 ;;		On entry : 0/0
  1846 ;;		On exit  : 0/0
  1847 ;;		Unchanged: 0/0
  1848 ;; Data sizes:     COMMON   BANK0   BANK1   BANK2   BANK3   BANK4   BANK5   BANK6   BANK7   BANK8   BANK9  BANK10  BANK1
      +1  BANK12
  1849 ;;      Params:         0       0       0       0       0       0       0       0       0       0       0       0       
      +0       0
  1850 ;;      Locals:         0       1       0       0       0       0       0       0       0       0       0       0       
      +0       0
  1851 ;;      Temps:          0       3       0       0       0       0       0       0       0       0       0       0       
      +0       0
  1852 ;;      Totals:         0       4       0       0       0       0       0       0       0       0       0       0       
      +0       0
  1853 ;;Total ram usage:        4 bytes
  1854 ;; Hardware stack levels used:    1
  1855 ;; Hardware stack levels required when called:    6
  1856 ;; This function calls:
  1857 ;;		Nothing
  1858 ;; This function is called by:
  1859 ;;		_CheckUsb
  1860 ;; This function uses a non-reentrant model
  1861 ;;
  1862                           
  1863                           
  1864                           ;psect for function _ReArmInterface
  1865  0565                     _ReArmInterface:	
  1866                           
  1867                           ;incstack = 0
  1868                           ; Regs used in _ReArmInterface: [wreg+fsr1l+fsr1h+status,2+status,0]
  1869                           ;ReArmInterface@InterfaceNo stored from wreg
  1870  0565  0020               	movlb	0	; select bank0
  1871  0566  00DD               	movwf	ReArmInterface@InterfaceNo
  1872  0567                     l2053:	
  1873                           
  1874                           ;Source/Usb.c: 196: void ReArmInterface(uint8_t InterfaceNo);Source/Usb.c: 197: {;Source
      +                          /Usb.c: 202:     if(!(Interfaces[InterfaceNo + 1].Output.Stat & 0x80))
  1875  0567  085D               	movf	ReArmInterface@InterfaceNo,w
  1876  0568  00DA               	movwf	??_ReArmInterface
  1877  0569  3002               	movlw	2
  1878  056A                     u2005:	
  1879  056A  35DA               	lslf	??_ReArmInterface,f
  1880  056B  3EFF               	addlw	-1
  1881  056C  1D03               	skipz
  1882  056D  2D6A               	goto	u2005
  1883  056E  355A               	lslf	??_ReArmInterface,w
  1884  056F  3E28               	addlw	40
  1885  0570  0086               	movwf	6
  1886  0571  0187               	clrf	7
  1887  0572  1B81               	btfsc	1,7
  1888  0573  2D75               	goto	u2011
  1889  0574  2D76               	goto	u2010
  1890  0575                     u2011:	
  1891  0575  2DBE               	goto	l214
  1892  0576                     u2010:	
  1893  0576                     l2055:	
  1894                           
  1895                           ;Source/Usb.c: 203:     {;Source/Usb.c: 205:         Interfaces[InterfaceNo + 1].Output.
      +                          Cnt = Buffers[(InterfaceNo * 2) + 1].Size;
  1896  0576  085D               	movf	ReArmInterface@InterfaceNo,w
  1897  0577  00DA               	movwf	??_ReArmInterface
  1898  0578  3001               	movlw	1
  1899  0579                     u2025:	
  1900  0579  35DA               	lslf	??_ReArmInterface,f
  1901  057A  3EFF               	addlw	-1
  1902  057B  1D03               	skipz
  1903  057C  2D79               	goto	u2025
  1904  057D  355A               	lslf	??_ReArmInterface,w
  1905  057E  3E63               	addlw	(low ((_Buffers| 0+2)))& (0+255)
  1906  057F  0086               	movwf	6
  1907  0580  0187               	clrf	7
  1908  0581  0801               	movf	1,w
  1909  0582  00DB               	movwf	??_ReArmInterface+1
  1910  0583  085D               	movf	ReArmInterface@InterfaceNo,w
  1911  0584  00DC               	movwf	??_ReArmInterface+2
  1912  0585  3002               	movlw	2
  1913  0586                     u2035:	
  1914  0586  35DC               	lslf	??_ReArmInterface+2,f
  1915  0587  3EFF               	addlw	-1
  1916  0588  1D03               	skipz
  1917  0589  2D86               	goto	u2035
  1918  058A  355C               	lslf	??_ReArmInterface+2,w
  1919  058B  3E29               	addlw	41
  1920  058C  0086               	movwf	6
  1921  058D  0187               	clrf	7
  1922  058E  085B               	movf	??_ReArmInterface+1,w
  1923  058F  0081               	movwf	1
  1924                           
  1925                           ;Source/Usb.c: 209:         if(Interfaces[InterfaceNo + 1].Output.Stat & 0x40)
  1926  0590  085D               	movf	ReArmInterface@InterfaceNo,w
  1927  0591  00DA               	movwf	??_ReArmInterface
  1928  0592  3002               	movlw	2
  1929  0593                     u2045:	
  1930  0593  35DA               	lslf	??_ReArmInterface,f
  1931  0594  3EFF               	addlw	-1
  1932  0595  1D03               	skipz
  1933  0596  2D93               	goto	u2045
  1934  0597  355A               	lslf	??_ReArmInterface,w
  1935  0598  3E28               	addlw	40
  1936  0599  0086               	movwf	6
  1937  059A  0187               	clrf	7
  1938  059B  1F01               	btfss	1,6
  1939  059C  2D9E               	goto	u2051
  1940  059D  2D9F               	goto	u2050
  1941  059E                     u2051:	
  1942  059E  2DAF               	goto	l2059
  1943  059F                     u2050:	
  1944  059F                     l2057:	
  1945                           
  1946                           ;Source/Usb.c: 210:             Interfaces[InterfaceNo + 1].Output.Stat = 0x80 | 0x08;
  1947  059F  3088               	movlw	136
  1948  05A0  00DA               	movwf	??_ReArmInterface
  1949  05A1  085D               	movf	ReArmInterface@InterfaceNo,w
  1950  05A2  00DB               	movwf	??_ReArmInterface+1
  1951  05A3  3002               	movlw	2
  1952  05A4                     u2065:	
  1953  05A4  35DB               	lslf	??_ReArmInterface+1,f
  1954  05A5  3EFF               	addlw	-1
  1955  05A6  1D03               	skipz
  1956  05A7  2DA4               	goto	u2065
  1957  05A8  355B               	lslf	??_ReArmInterface+1,w
  1958  05A9  3E28               	addlw	40
  1959  05AA  0086               	movwf	6
  1960  05AB  0187               	clrf	7
  1961  05AC  085A               	movf	??_ReArmInterface,w
  1962  05AD  0081               	movwf	1
  1963  05AE  2DBE               	goto	l214
  1964  05AF                     l2059:	
  1965                           
  1966                           ;Source/Usb.c: 212:             Interfaces[InterfaceNo + 1].Output.Stat = 0x80 | 0x40 | 
      +                          0x08;
  1967  05AF  30C8               	movlw	200
  1968  05B0  00DA               	movwf	??_ReArmInterface
  1969  05B1  085D               	movf	ReArmInterface@InterfaceNo,w
  1970  05B2  00DB               	movwf	??_ReArmInterface+1
  1971  05B3  3002               	movlw	2
  1972  05B4                     u2075:	
  1973  05B4  35DB               	lslf	??_ReArmInterface+1,f
  1974  05B5  3EFF               	addlw	-1
  1975  05B6  1D03               	skipz
  1976  05B7  2DB4               	goto	u2075
  1977  05B8  355B               	lslf	??_ReArmInterface+1,w
  1978  05B9  3E28               	addlw	40
  1979  05BA  0086               	movwf	6
  1980  05BB  0187               	clrf	7
  1981  05BC  085A               	movf	??_ReArmInterface,w
  1982  05BD  0081               	movwf	1
  1983  05BE                     l214:	
  1984  05BE  0008               	return
  1985  05BF                     __end_of_ReArmInterface:	
  1986                           
  1987                           	psect	text7
  1988  07FF                     __ptext7:	
  1989 ;; *************** function _ProcessIncomingData *****************
  1990 ;; Defined at:
  1991 ;;		line 114 in file "Source/Main.c"
  1992 ;; Parameters:    Size  Location     Type
  1993 ;;		None
  1994 ;; Auto vars:     Size  Location     Type
  1995 ;;		None
  1996 ;; Return value:  Size  Location     Type
  1997 ;;                  1    wreg      void 
  1998 ;; Registers used:
  1999 ;;		None
  2000 ;; Tracked objects:
  2001 ;;		On entry : 0/0
  2002 ;;		On exit  : 0/0
  2003 ;;		Unchanged: 0/0
  2004 ;; Data sizes:     COMMON   BANK0   BANK1   BANK2   BANK3   BANK4   BANK5   BANK6   BANK7   BANK8   BANK9  BANK10  BANK1
      +1  BANK12
  2005 ;;      Params:         0       0       0       0       0       0       0       0       0       0       0       0       
      +0       0
  2006 ;;      Locals:         0       0       0       0       0       0       0       0       0       0       0       0       
      +0       0
  2007 ;;      Temps:          0       0       0       0       0       0       0       0       0       0       0       0       
      +0       0
  2008 ;;      Totals:         0       0       0       0       0       0       0       0       0       0       0       0       
      +0       0
  2009 ;;Total ram usage:        0 bytes
  2010 ;; Hardware stack levels used:    1
  2011 ;; Hardware stack levels required when called:    6
  2012 ;; This function calls:
  2013 ;;		Nothing
  2014 ;; This function is called by:
  2015 ;;		_CheckUsb
  2016 ;; This function uses a non-reentrant model
  2017 ;;
  2018                           
  2019                           
  2020                           ;psect for function _ProcessIncomingData
  2021  07FF                     _ProcessIncomingData:	
  2022  07FF                     l98:	
  2023                           ;incstack = 0
  2024                           ; Regs used in _ProcessIncomingData: []
  2025                           
  2026  07FF  0008               	return
  2027  0800                     __end_of_ProcessIncomingData:	
  2028                           
  2029                           	psect	text8
  2030  06D0                     __ptext8:	
  2031 ;; *************** function _IsUsbDataAvaialble *****************
  2032 ;; Defined at:
  2033 ;;		line 186 in file "Source/Usb.c"
  2034 ;; Parameters:    Size  Location     Type
  2035 ;;  InterfaceNo     1    wreg     unsigned char 
  2036 ;; Auto vars:     Size  Location     Type
  2037 ;;  InterfaceNo     1    1[BANK0 ] unsigned char 
  2038 ;; Return value:  Size  Location     Type
  2039 ;;                  1    wreg      unsigned char 
  2040 ;; Registers used:
  2041 ;;		wreg, fsr1l, fsr1h, status,2, status,0
  2042 ;; Tracked objects:
  2043 ;;		On entry : 0/0
  2044 ;;		On exit  : 0/0
  2045 ;;		Unchanged: 0/0
  2046 ;; Data sizes:     COMMON   BANK0   BANK1   BANK2   BANK3   BANK4   BANK5   BANK6   BANK7   BANK8   BANK9  BANK10  BANK1
      +1  BANK12
  2047 ;;      Params:         0       0       0       0       0       0       0       0       0       0       0       0       
      +0       0
  2048 ;;      Locals:         0       1       0       0       0       0       0       0       0       0       0       0       
      +0       0
  2049 ;;      Temps:          0       1       0       0       0       0       0       0       0       0       0       0       
      +0       0
  2050 ;;      Totals:         0       2       0       0       0       0       0       0       0       0       0       0       
      +0       0
  2051 ;;Total ram usage:        2 bytes
  2052 ;; Hardware stack levels used:    1
  2053 ;; Hardware stack levels required when called:    6
  2054 ;; This function calls:
  2055 ;;		Nothing
  2056 ;; This function is called by:
  2057 ;;		_CheckUsb
  2058 ;; This function uses a non-reentrant model
  2059 ;;
  2060                           
  2061                           
  2062                           ;psect for function _IsUsbDataAvaialble
  2063  06D0                     _IsUsbDataAvaialble:	
  2064                           
  2065                           ;incstack = 0
  2066                           ; Regs used in _IsUsbDataAvaialble: [wreg+fsr1l+fsr1h+status,2+status,0]
  2067                           ;IsUsbDataAvaialble@InterfaceNo stored from wreg
  2068  06D0  0020               	movlb	0	; select bank0
  2069  06D1  00DB               	movwf	IsUsbDataAvaialble@InterfaceNo
  2070  06D2                     l2037:	
  2071                           
  2072                           ;Source/Usb.c: 186: uint8_t IsUsbDataAvaialble(uint8_t InterfaceNo);Source/Usb.c: 187: {
      +                          ;Source/Usb.c: 188:     if(InterfaceNo >= 0x01) return 0;
  2073  06D2  085B               	movf	IsUsbDataAvaialble@InterfaceNo,w
  2074  06D3  1903               	btfsc	3,2
  2075  06D4  2ED6               	goto	u1961
  2076  06D5  2ED7               	goto	u1960
  2077  06D6                     u1961:	
  2078  06D6  2ED9               	goto	l2043
  2079  06D7                     u1960:	
  2080  06D7                     l2039:	
  2081  06D7  3000               	movlw	0
  2082  06D8  2EF4               	goto	l207
  2083  06D9                     l2043:	
  2084                           
  2085                           ;Source/Usb.c: 189:     if(!(Interfaces[InterfaceNo + 1].Output.Stat & 0x80))
  2086  06D9  085B               	movf	IsUsbDataAvaialble@InterfaceNo,w
  2087  06DA  00DA               	movwf	??_IsUsbDataAvaialble
  2088  06DB  3002               	movlw	2
  2089  06DC                     u1975:	
  2090  06DC  35DA               	lslf	??_IsUsbDataAvaialble,f
  2091  06DD  3EFF               	addlw	-1
  2092  06DE  1D03               	skipz
  2093  06DF  2EDC               	goto	u1975
  2094  06E0  355A               	lslf	??_IsUsbDataAvaialble,w
  2095  06E1  3E28               	addlw	40
  2096  06E2  0086               	movwf	6
  2097  06E3  0187               	clrf	7
  2098  06E4  1B81               	btfsc	1,7
  2099  06E5  2EE7               	goto	u1981
  2100  06E6  2EE8               	goto	u1980
  2101  06E7                     u1981:	
  2102  06E7  2ED7               	goto	l2039
  2103  06E8                     u1980:	
  2104  06E8                     l2045:	
  2105                           
  2106                           ;Source/Usb.c: 190:     {;Source/Usb.c: 191:         return Interfaces[InterfaceNo + 1].
      +                          Output.Cnt;
  2107  06E8  085B               	movf	IsUsbDataAvaialble@InterfaceNo,w
  2108  06E9  00DA               	movwf	??_IsUsbDataAvaialble
  2109  06EA  3002               	movlw	2
  2110  06EB                     u1995:	
  2111  06EB  35DA               	lslf	??_IsUsbDataAvaialble,f
  2112  06EC  3EFF               	addlw	-1
  2113  06ED  1D03               	skipz
  2114  06EE  2EEB               	goto	u1995
  2115  06EF  355A               	lslf	??_IsUsbDataAvaialble,w
  2116  06F0  3E29               	addlw	41
  2117  06F1  0086               	movwf	6
  2118  06F2  0187               	clrf	7
  2119  06F3  0801               	movf	1,w
  2120  06F4                     l207:	
  2121  06F4  0008               	return
  2122  06F5                     __end_of_IsUsbDataAvaialble:	
  2123                           
  2124                           	psect	text9
  2125  07EC                     __ptext9:	
  2126 ;; *************** function _NES_GPIO_Initialize *****************
  2127 ;; Defined at:
  2128 ;;		line 41 in file "Source/nes_gamepad.c"
  2129 ;; Parameters:    Size  Location     Type
  2130 ;;		None
  2131 ;; Auto vars:     Size  Location     Type
  2132 ;;		None
  2133 ;; Return value:  Size  Location     Type
  2134 ;;                  1    wreg      void 
  2135 ;; Registers used:
  2136 ;;		None
  2137 ;; Tracked objects:
  2138 ;;		On entry : 0/0
  2139 ;;		On exit  : 0/0
  2140 ;;		Unchanged: 0/0
  2141 ;; Data sizes:     COMMON   BANK0   BANK1   BANK2   BANK3   BANK4   BANK5   BANK6   BANK7   BANK8   BANK9  BANK10  BANK1
      +1  BANK12
  2142 ;;      Params:         0       0       0       0       0       0       0       0       0       0       0       0       
      +0       0
  2143 ;;      Locals:         0       0       0       0       0       0       0       0       0       0       0       0       
      +0       0
  2144 ;;      Temps:          0       0       0       0       0       0       0       0       0       0       0       0       
      +0       0
  2145 ;;      Totals:         0       0       0       0       0       0       0       0       0       0       0       0       
      +0       0
  2146 ;;Total ram usage:        0 bytes
  2147 ;; Hardware stack levels used:    1
  2148 ;; Hardware stack levels required when called:    6
  2149 ;; This function calls:
  2150 ;;		Nothing
  2151 ;; This function is called by:
  2152 ;;		_main
  2153 ;; This function uses a non-reentrant model
  2154 ;;
  2155                           
  2156                           
  2157                           ;psect for function _NES_GPIO_Initialize
  2158  07EC                     _NES_GPIO_Initialize:	
  2159  07EC                     l2407:	
  2160                           ;incstack = 0
  2161                           ; Regs used in _NES_GPIO_Initialize: []
  2162                           
  2163                           
  2164                           ;Source/nes_gamepad.c: 43:     ANSELCbits.ANSC3 = 0;
  2165  07EC  0023               	movlb	3	; select bank3
  2166  07ED  118E               	bcf	14,3	;volatile
  2167                           
  2168                           ;Source/nes_gamepad.c: 44:     TRISCbits.TRISC3 = 1;
  2169  07EE  0021               	movlb	1	; select bank1
  2170  07EF  158E               	bsf	14,3	;volatile
  2171                           
  2172                           ;Source/nes_gamepad.c: 45:     TRISCbits.TRISC4 = 0;
  2173  07F0  120E               	bcf	14,4	;volatile
  2174                           
  2175                           ;Source/nes_gamepad.c: 46:     TRISCbits.TRISC5 = 0;
  2176  07F1  128E               	bcf	14,5	;volatile
  2177                           
  2178                           ;Source/nes_gamepad.c: 48:     ANSELAbits.ANSA4 = 0;
  2179  07F2  0023               	movlb	3	; select bank3
  2180  07F3  120C               	bcf	12,4	;volatile
  2181                           
  2182                           ;Source/nes_gamepad.c: 49:     TRISAbits.TRISA4 = 0;
  2183  07F4  0021               	movlb	1	; select bank1
  2184  07F5  120C               	bcf	12,4	;volatile
  2185  07F6                     l434:	
  2186  07F6  0008               	return
  2187  07F7                     __end_of_NES_GPIO_Initialize:	
  2188                           
  2189                           	psect	text10
  2190  07B2                     __ptext10:	
  2191 ;; *************** function _InitializeUSB *****************
  2192 ;; Defined at:
  2193 ;;		line 762 in file "Source/Usb.c"
  2194 ;; Parameters:    Size  Location     Type
  2195 ;;		None
  2196 ;; Auto vars:     Size  Location     Type
  2197 ;;		None
  2198 ;; Return value:  Size  Location     Type
  2199 ;;                  1    wreg      void 
  2200 ;; Registers used:
  2201 ;;		wreg, status,2, status,0, pclath, cstack
  2202 ;; Tracked objects:
  2203 ;;		On entry : 0/0
  2204 ;;		On exit  : 0/0
  2205 ;;		Unchanged: 0/0
  2206 ;; Data sizes:     COMMON   BANK0   BANK1   BANK2   BANK3   BANK4   BANK5   BANK6   BANK7   BANK8   BANK9  BANK10  BANK1
      +1  BANK12
  2207 ;;      Params:         0       0       0       0       0       0       0       0       0       0       0       0       
      +0       0
  2208 ;;      Locals:         0       0       0       0       0       0       0       0       0       0       0       0       
      +0       0
  2209 ;;      Temps:          0       0       0       0       0       0       0       0       0       0       0       0       
      +0       0
  2210 ;;      Totals:         0       0       0       0       0       0       0       0       0       0       0       0       
      +0       0
  2211 ;;Total ram usage:        0 bytes
  2212 ;; Hardware stack levels used:    1
  2213 ;; Hardware stack levels required when called:    7
  2214 ;; This function calls:
  2215 ;;		_ResetPPBuffers
  2216 ;; This function is called by:
  2217 ;;		_main
  2218 ;; This function uses a non-reentrant model
  2219 ;;
  2220                           
  2221                           
  2222                           ;psect for function _InitializeUSB
  2223  07B2                     _InitializeUSB:	
  2224  07B2                     l2409:	
  2225                           ;incstack = 0
  2226                           ; Regs used in _InitializeUSB: [wreg+status,2+status,0+pclath+cstack]
  2227                           
  2228                           
  2229                           ;Source/Usb.c: 764:     UCFG = 0x14;
  2230  07B2  3014               	movlw	20
  2231  07B3  003D               	movlb	29	; select bank29
  2232  07B4  0091               	movwf	17	;volatile
  2233  07B5                     l2411:	
  2234                           
  2235                           ;Source/Usb.c: 765:     DeviceState = 0x00;
  2236  07B5  0020               	movlb	0	; select bank0
  2237  07B6  01BF               	clrf	_DeviceState
  2238  07B7                     l2413:	
  2239                           
  2240                           ;Source/Usb.c: 766:     RemoteWakeup = 0x00;
  2241  07B7  01BD               	clrf	_RemoteWakeup
  2242  07B8                     l2415:	
  2243                           
  2244                           ;Source/Usb.c: 767:     CurrentConfiguration = 0x00;
  2245  07B8  01D9               	clrf	_CurrentConfiguration
  2246  07B9                     l2417:	
  2247                           
  2248                           ;Source/Usb.c: 768:     UADDR = 0;
  2249  07B9  003D               	movlb	29	; select bank29
  2250  07BA  0196               	clrf	22	;volatile
  2251  07BB                     l2419:	
  2252                           
  2253                           ;Source/Usb.c: 769:     UEIR = 0;
  2254  07BB  0193               	clrf	19	;volatile
  2255  07BC                     l2421:	
  2256                           
  2257                           ;Source/Usb.c: 770:     ResetPPBuffers();
  2258  07BC  318F  27E2  3187   	fcall	_ResetPPBuffers
  2259  07BF                     l2423:	
  2260                           
  2261                           ;Source/Usb.c: 771:     UCONbits.PKTDIS = 0;
  2262  07BF  003D               	movlb	29	; select bank29
  2263  07C0  120E               	bcf	14,4	;volatile
  2264  07C1                     l376:	
  2265  07C1  0008               	return
  2266  07C2                     __end_of_InitializeUSB:	
  2267                           
  2268                           	psect	text11
  2269  0FE2                     __ptext11:	
  2270 ;; *************** function _ResetPPBuffers *****************
  2271 ;; Defined at:
  2272 ;;		line 753 in file "Source/Usb.c"
  2273 ;; Parameters:    Size  Location     Type
  2274 ;;		None
  2275 ;; Auto vars:     Size  Location     Type
  2276 ;;		None
  2277 ;; Return value:  Size  Location     Type
  2278 ;;                  1    wreg      void 
  2279 ;; Registers used:
  2280 ;;		None
  2281 ;; Tracked objects:
  2282 ;;		On entry : 0/0
  2283 ;;		On exit  : 0/0
  2284 ;;		Unchanged: 0/0
  2285 ;; Data sizes:     COMMON   BANK0   BANK1   BANK2   BANK3   BANK4   BANK5   BANK6   BANK7   BANK8   BANK9  BANK10  BANK1
      +1  BANK12
  2286 ;;      Params:         0       0       0       0       0       0       0       0       0       0       0       0       
      +0       0
  2287 ;;      Locals:         0       0       0       0       0       0       0       0       0       0       0       0       
      +0       0
  2288 ;;      Temps:          0       0       0       0       0       0       0       0       0       0       0       0       
      +0       0
  2289 ;;      Totals:         0       0       0       0       0       0       0       0       0       0       0       0       
      +0       0
  2290 ;;Total ram usage:        0 bytes
  2291 ;; Hardware stack levels used:    1
  2292 ;; Hardware stack levels required when called:    6
  2293 ;; This function calls:
  2294 ;;		Nothing
  2295 ;; This function is called by:
  2296 ;;		_InitializeUSB
  2297 ;; This function uses a non-reentrant model
  2298 ;;
  2299                           
  2300                           
  2301                           ;psect for function _ResetPPBuffers
  2302  0FE2                     _ResetPPBuffers:	
  2303  0FE2                     l371:	
  2304                           ;incstack = 0
  2305                           ; Regs used in _ResetPPBuffers: []
  2306                           ;Source/Usb.c: 755:     do
  2307                           
  2308                           
  2309                           ;Source/Usb.c: 756:     {;Source/Usb.c: 757:         UCONbits.PPBRST = 1;
  2310  0FE2  003D               	movlb	29	; select bank29
  2311  0FE3  170E               	bsf	14,6	;volatile
  2312                           
  2313                           ;Source/Usb.c: 758:  UCONbits.PPBRST = 0;
  2314  0FE4  130E               	bcf	14,6	;volatile
  2315  0FE5                     l373:	
  2316  0FE5  0008               	return
  2317  0FE6                     __end_of_ResetPPBuffers:	
  2318                           
  2319                           	psect	text12
  2320  07C2                     __ptext12:	
  2321 ;; *************** function _InitializeSystem *****************
  2322 ;; Defined at:
  2323 ;;		line 50 in file "Source/Main.c"
  2324 ;; Parameters:    Size  Location     Type
  2325 ;;		None
  2326 ;; Auto vars:     Size  Location     Type
  2327 ;;		None
  2328 ;; Return value:  Size  Location     Type
  2329 ;;                  1    wreg      void 
  2330 ;; Registers used:
  2331 ;;		wreg, status,2
  2332 ;; Tracked objects:
  2333 ;;		On entry : 0/0
  2334 ;;		On exit  : 0/0
  2335 ;;		Unchanged: 0/0
  2336 ;; Data sizes:     COMMON   BANK0   BANK1   BANK2   BANK3   BANK4   BANK5   BANK6   BANK7   BANK8   BANK9  BANK10  BANK1
      +1  BANK12
  2337 ;;      Params:         0       0       0       0       0       0       0       0       0       0       0       0       
      +0       0
  2338 ;;      Locals:         0       0       0       0       0       0       0       0       0       0       0       0       
      +0       0
  2339 ;;      Temps:          0       0       0       0       0       0       0       0       0       0       0       0       
      +0       0
  2340 ;;      Totals:         0       0       0       0       0       0       0       0       0       0       0       0       
      +0       0
  2341 ;;Total ram usage:        0 bytes
  2342 ;; Hardware stack levels used:    1
  2343 ;; Hardware stack levels required when called:    6
  2344 ;; This function calls:
  2345 ;;		Nothing
  2346 ;; This function is called by:
  2347 ;;		_main
  2348 ;; This function uses a non-reentrant model
  2349 ;;
  2350                           
  2351                           
  2352                           ;psect for function _InitializeSystem
  2353  07C2                     _InitializeSystem:	
  2354  07C2                     l2373:	
  2355                           ;incstack = 0
  2356                           ; Regs used in _InitializeSystem: [wreg+status,2]
  2357                           
  2358                           
  2359                           ;Source/Main.c: 52:             y = -128;
  2360  07C2  0023               	movlb	3	; select bank3
  2361  07C3  018C               	clrf	12	;volatile
  2362                           
  2363                           ;Source/Main.c: 53:         }
  2364  07C4  018E               	clrf	14	;volatile
  2365                           
  2366                           ;Source/Main.c: 54:         else if ((gamepad_reading & (1<<5)) > 0)
  2367  07C5  0021               	movlb	1	; select bank1
  2368  07C6  0198               	clrf	24	;volatile
  2369  07C7                     l2375:	
  2370                           
  2371                           ;Source/Main.c: 55:         {
  2372  07C7  30FC               	movlw	252
  2373  07C8  0099               	movwf	25	;volatile
  2374  07C9                     l2377:	
  2375                           
  2376                           ;Source/Main.c: 56:             y = 127;
  2377  07C9  3090               	movlw	144
  2378  07CA  0027               	movlb	7	; select bank7
  2379  07CB  009B               	movwf	27	;volatile
  2380  07CC                     l2379:	
  2381                           
  2382                           ;Source/Main.c: 57:         }
  2383  07CC  30C3               	movlw	195
  2384  07CD  0021               	movlb	1	; select bank1
  2385  07CE  0095               	movwf	21	;volatile
  2386  07CF                     l2381:	
  2387                           
  2388                           ;Source/Main.c: 58: 
  2389  07CF  0022               	movlb	2	; select bank2
  2390  07D0  018E               	clrf	14	;volatile
  2391  07D1                     l75:	
  2392  07D1  0008               	return
  2393  07D2                     __end_of_InitializeSystem:	
  2394                           
  2395                           	psect	text13
  2396  0750                     __ptext13:	
  2397 ;; *************** function _EnableUSBModule *****************
  2398 ;; Defined at:
  2399 ;;		line 774 in file "Source/Usb.c"
  2400 ;; Parameters:    Size  Location     Type
  2401 ;;		None
  2402 ;; Auto vars:     Size  Location     Type
  2403 ;;		None
  2404 ;; Return value:  Size  Location     Type
  2405 ;;                  1    wreg      void 
  2406 ;; Registers used:
  2407 ;;		wreg, status,2
  2408 ;; Tracked objects:
  2409 ;;		On entry : 0/0
  2410 ;;		On exit  : 0/0
  2411 ;;		Unchanged: 0/0
  2412 ;; Data sizes:     COMMON   BANK0   BANK1   BANK2   BANK3   BANK4   BANK5   BANK6   BANK7   BANK8   BANK9  BANK10  BANK1
      +1  BANK12
  2413 ;;      Params:         0       0       0       0       0       0       0       0       0       0       0       0       
      +0       0
  2414 ;;      Locals:         0       0       0       0       0       0       0       0       0       0       0       0       
      +0       0
  2415 ;;      Temps:          0       1       0       0       0       0       0       0       0       0       0       0       
      +0       0
  2416 ;;      Totals:         0       1       0       0       0       0       0       0       0       0       0       0       
      +0       0
  2417 ;;Total ram usage:        1 bytes
  2418 ;; Hardware stack levels used:    1
  2419 ;; Hardware stack levels required when called:    6
  2420 ;; This function calls:
  2421 ;;		Nothing
  2422 ;; This function is called by:
  2423 ;;		_main
  2424 ;; This function uses a non-reentrant model
  2425 ;;
  2426                           
  2427                           
  2428                           ;psect for function _EnableUSBModule
  2429  0750                     _EnableUSBModule:	
  2430  0750                     l2425:	
  2431                           ;incstack = 0
  2432                           ; Regs used in _EnableUSBModule: [wreg+status,2]
  2433                           
  2434                           
  2435                           ;Source/Usb.c: 778:     if(UCONbits.USBEN == 0)
  2436  0750  003D               	movlb	29	; select bank29
  2437  0751  198E               	btfsc	14,3	;volatile
  2438  0752  2F54               	goto	u2621
  2439  0753  2F55               	goto	u2620
  2440  0754                     u2621:	
  2441  0754  2F5B               	goto	l380
  2442  0755                     u2620:	
  2443  0755                     l2427:	
  2444                           
  2445                           ;Source/Usb.c: 779:     {;Source/Usb.c: 780:         UCON = 0;
  2446  0755  018E               	clrf	14	;volatile
  2447                           
  2448                           ;Source/Usb.c: 781:         UIE = 0;
  2449  0756  0192               	clrf	18	;volatile
  2450  0757                     l2429:	
  2451                           
  2452                           ;Source/Usb.c: 782:         UCONbits.USBEN = 1;
  2453  0757  158E               	bsf	14,3	;volatile
  2454  0758                     l2431:	
  2455                           
  2456                           ;Source/Usb.c: 783:         DeviceState = 0x01;
  2457  0758  0020               	movlb	0	; select bank0
  2458  0759  01BF               	clrf	_DeviceState
  2459  075A  0ABF               	incf	_DeviceState,f
  2460  075B                     l380:	
  2461  075B  003D               	movlb	29	; select bank29
  2462  075C  1A8E               	btfsc	14,5	;volatile
  2463  075D  2F5F               	goto	u2631
  2464  075E  2F60               	goto	u2630
  2465  075F                     u2631:	
  2466  075F  2F5B               	goto	l380
  2467  0760                     u2630:	
  2468  0760                     l2433:	
  2469                           
  2470                           ;Source/Usb.c: 790:     UIR = 0;
  2471  0760  0190               	clrf	16	;volatile
  2472                           
  2473                           ;Source/Usb.c: 791:     UIE = 0;
  2474  0761  0192               	clrf	18	;volatile
  2475  0762                     l2435:	
  2476                           
  2477                           ;Source/Usb.c: 792:     UIEbits.URSTIE = 1;
  2478  0762  1412               	bsf	18,0	;volatile
  2479  0763                     l2437:	
  2480                           
  2481                           ;Source/Usb.c: 793:     UIEbits.IDLEIE = 1;
  2482  0763  1612               	bsf	18,4	;volatile
  2483  0764                     l2439:	
  2484                           
  2485                           ;Source/Usb.c: 794:     DeviceState = 0x02;
  2486  0764  3002               	movlw	2
  2487  0765  0020               	movlb	0	; select bank0
  2488  0766  00DA               	movwf	??_EnableUSBModule
  2489  0767  085A               	movf	??_EnableUSBModule,w
  2490  0768  00BF               	movwf	_DeviceState
  2491  0769                     l383:	
  2492  0769  0008               	return
  2493  076A                     __end_of_EnableUSBModule:	
  2494                           
  2495                           	psect	text14
  2496  07F7                     __ptext14:	
  2497 ;; *************** function _EnableInterrupts *****************
  2498 ;; Defined at:
  2499 ;;		line 61 in file "Source/Main.c"
  2500 ;; Parameters:    Size  Location     Type
  2501 ;;		None
  2502 ;; Auto vars:     Size  Location     Type
  2503 ;;		None
  2504 ;; Return value:  Size  Location     Type
  2505 ;;                  1    wreg      void 
  2506 ;; Registers used:
  2507 ;;		wreg
  2508 ;; Tracked objects:
  2509 ;;		On entry : 0/0
  2510 ;;		On exit  : 0/0
  2511 ;;		Unchanged: 0/0
  2512 ;; Data sizes:     COMMON   BANK0   BANK1   BANK2   BANK3   BANK4   BANK5   BANK6   BANK7   BANK8   BANK9  BANK10  BANK1
      +1  BANK12
  2513 ;;      Params:         0       0       0       0       0       0       0       0       0       0       0       0       
      +0       0
  2514 ;;      Locals:         0       0       0       0       0       0       0       0       0       0       0       0       
      +0       0
  2515 ;;      Temps:          0       0       0       0       0       0       0       0       0       0       0       0       
      +0       0
  2516 ;;      Totals:         0       0       0       0       0       0       0       0       0       0       0       0       
      +0       0
  2517 ;;Total ram usage:        0 bytes
  2518 ;; Hardware stack levels used:    1
  2519 ;; Hardware stack levels required when called:    6
  2520 ;; This function calls:
  2521 ;;		Nothing
  2522 ;; This function is called by:
  2523 ;;		_main
  2524 ;; This function uses a non-reentrant model
  2525 ;;
  2526                           
  2527                           
  2528                           ;psect for function _EnableInterrupts
  2529  07F7                     _EnableInterrupts:	
  2530  07F7                     l2383:	
  2531                           ;incstack = 0
  2532                           ; Regs used in _EnableInterrupts: [wreg]
  2533                           
  2534                           
  2535                           ;Source/Main.c: 63:         else if ((gamepad_reading & (1<<7)) > 0)
  2536  07F7  304B               	movlw	75
  2537  07F8  003D               	movlb	29	; select bank29
  2538  07F9  0092               	movwf	18	;volatile
  2539  07FA                     l2385:	
  2540                           
  2541                           ;Source/Main.c: 64:         {
  2542  07FA  170B               	bsf	11,6	;volatile
  2543  07FB                     l2387:	
  2544                           
  2545                           ;Source/Main.c: 65:             x = 127;
  2546  07FB  178B               	bsf	11,7	;volatile
  2547  07FC                     l2389:	
  2548                           
  2549                           ;Source/Main.c: 66:         }
  2550  07FC  0021               	movlb	1	; select bank1
  2551  07FD  1512               	bsf	18,2	;volatile
  2552  07FE                     l78:	
  2553  07FE  0008               	return
  2554  07FF                     __end_of_EnableInterrupts:	
  2555                           
  2556                           	psect	intentry
  2557  0004                     __pintentry:	
  2558 ;; *************** function _ISRCode *****************
  2559 ;; Defined at:
  2560 ;;		line 45 in file "Source/Main.c"
  2561 ;; Parameters:    Size  Location     Type
  2562 ;;		None
  2563 ;; Auto vars:     Size  Location     Type
  2564 ;;		None
  2565 ;; Return value:  Size  Location     Type
  2566 ;;                  1    wreg      void 
  2567 ;; Registers used:
  2568 ;;		wreg, fsr0l, fsr0h, fsr1l, fsr1h, status,2, status,0, pclath, cstack
  2569 ;; Tracked objects:
  2570 ;;		On entry : 0/0
  2571 ;;		On exit  : 0/0
  2572 ;;		Unchanged: 0/0
  2573 ;; Data sizes:     COMMON   BANK0   BANK1   BANK2   BANK3   BANK4   BANK5   BANK6   BANK7   BANK8   BANK9  BANK10  BANK1
      +1  BANK12
  2574 ;;      Params:         0       0       0       0       0       0       0       0       0       0       0       0       
      +0       0
  2575 ;;      Locals:         0       0       0       0       0       0       0       0       0       0       0       0       
      +0       0
  2576 ;;      Temps:          0       0       0       0       0       0       0       0       0       0       0       0       
      +0       0
  2577 ;;      Totals:         0       0       0       0       0       0       0       0       0       0       0       0       
      +0       0
  2578 ;;Total ram usage:        0 bytes
  2579 ;; Hardware stack levels used:    1
  2580 ;; Hardware stack levels required when called:    5
  2581 ;; This function calls:
  2582 ;;		_ProcessUSBTransactions
  2583 ;; This function is called by:
  2584 ;;		Interrupt level 1
  2585 ;; This function uses a non-reentrant model
  2586 ;;
  2587                           
  2588  0004                     _ISRCode:	
  2589                           
  2590                           ;incstack = 0
  2591  0004  147E               	bsf	int$flags,0	;set compiler interrupt flag (level 1)
  2592                           
  2593                           ; Regs used in _ISRCode: [wreg-fsr1h+status,2+status,0+pclath+cstack]
  2594  0005  3180               	pagesel	$
  2595  0006                     i1l2441:	
  2596                           
  2597                           ;Source/Main.c: 47:         int8_t x = 0;
  2598  0006  0020               	movlb	0	; select bank0
  2599  0007  1D12               	btfss	18,2	;volatile
  2600  0008  280A               	goto	u264_21
  2601  0009  280B               	goto	u264_20
  2602  000A                     u264_21:	
  2603  000A  280E               	goto	i1l72
  2604  000B                     u264_20:	
  2605  000B                     i1l2443:	
  2606  000B  3181  215C  3180   	fcall	_ProcessUSBTransactions
  2607  000E                     i1l72:	
  2608  000E  107E               	bcf	int$flags,0	;clear compiler interrupt flag (level 1)
  2609  000F  0009               	retfie
  2610  0010                     __end_of_ISRCode:	
  2611                           
  2612                           	psect	text16
  2613  015C                     __ptext16:	
  2614 ;; *************** function _ProcessUSBTransactions *****************
  2615 ;; Defined at:
  2616 ;;		line 860 in file "Source/Usb.c"
  2617 ;; Parameters:    Size  Location     Type
  2618 ;;		None
  2619 ;; Auto vars:     Size  Location     Type
  2620 ;;		None
  2621 ;; Return value:  Size  Location     Type
  2622 ;;                  1    wreg      void 
  2623 ;; Registers used:
  2624 ;;		wreg, fsr0l, fsr0h, fsr1l, fsr1h, status,2, status,0, pclath, cstack
  2625 ;; Tracked objects:
  2626 ;;		On entry : 0/0
  2627 ;;		On exit  : 0/0
  2628 ;;		Unchanged: 0/0
  2629 ;; Data sizes:     COMMON   BANK0   BANK1   BANK2   BANK3   BANK4   BANK5   BANK6   BANK7   BANK8   BANK9  BANK10  BANK1
      +1  BANK12
  2630 ;;      Params:         0       0       0       0       0       0       0       0       0       0       0       0       
      +0       0
  2631 ;;      Locals:         0       0       0       0       0       0       0       0       0       0       0       0       
      +0       0
  2632 ;;      Temps:          1       0       0       0       0       0       0       0       0       0       0       0       
      +0       0
  2633 ;;      Totals:         1       0       0       0       0       0       0       0       0       0       0       0       
      +0       0
  2634 ;;Total ram usage:        1 bytes
  2635 ;; Hardware stack levels used:    1
  2636 ;; Hardware stack levels required when called:    4
  2637 ;; This function calls:
  2638 ;;		_BusReset
  2639 ;;		_ProcessControlTransfer
  2640 ;;		_Stall
  2641 ;;		_StartOfFrame
  2642 ;;		_Suspend
  2643 ;;		_UnSuspend
  2644 ;; This function is called by:
  2645 ;;		_ISRCode
  2646 ;; This function uses a non-reentrant model
  2647 ;;
  2648                           
  2649                           
  2650                           ;psect for function _ProcessUSBTransactions
  2651  015C                     _ProcessUSBTransactions:	
  2652  015C                     i1l2295:	
  2653                           ;incstack = 0
  2654                           ; Regs used in _ProcessUSBTransactions: [wreg-fsr1h+status,2+status,0+pclath+cstack]
  2655                           
  2656                           
  2657                           ;Source/Usb.c: 863:     if(DeviceState == 0x00)
  2658  015C  0020               	movlb	0	; select bank0
  2659  015D  083F               	movf	_DeviceState,w
  2660  015E  1D03               	btfss	3,2
  2661  015F  2961               	goto	u242_21
  2662  0160  2962               	goto	u242_20
  2663  0161                     u242_21:	
  2664  0161  2967               	goto	i1l405
  2665  0162                     u242_20:	
  2666  0162                     i1l2297:	
  2667                           
  2668                           ;Source/Usb.c: 864:     {;Source/Usb.c: 865:         UIR = 0;
  2669  0162  003D               	movlb	29	; select bank29
  2670  0163  0190               	clrf	16	;volatile
  2671  0164                     i1l2299:	
  2672                           
  2673                           ;Source/Usb.c: 866:         PIR2bits.USBIF = 0;
  2674  0164  0020               	movlb	0	; select bank0
  2675  0165  1112               	bcf	18,2	;volatile
  2676  0166  29ED               	goto	i1l406
  2677  0167                     i1l405:	
  2678                           ;Source/Usb.c: 868:     }
  2679                           
  2680                           
  2681                           ;Source/Usb.c: 871:     if(UIRbits.ACTVIF && UIEbits.ACTVIE)
  2682  0167  003D               	movlb	29	; select bank29
  2683  0168  1D10               	btfss	16,2	;volatile
  2684  0169  296B               	goto	u243_21
  2685  016A  296C               	goto	u243_20
  2686  016B                     u243_21:	
  2687  016B  2978               	goto	i1l2309
  2688  016C                     u243_20:	
  2689  016C                     i1l2303:	
  2690  016C  1D12               	btfss	18,2	;volatile
  2691  016D  296F               	goto	u244_21
  2692  016E  2970               	goto	u244_20
  2693  016F                     u244_21:	
  2694  016F  2978               	goto	i1l2309
  2695  0170                     u244_20:	
  2696  0170                     i1l2305:	
  2697                           
  2698                           ;Source/Usb.c: 872:     {;Source/Usb.c: 873:         UnSuspend();
  2699  0170  318F  27F8  3181   	fcall	_UnSuspend
  2700  0173                     i1l2307:	
  2701                           
  2702                           ;Source/Usb.c: 874:  UIR &= ~(0x04);
  2703  0173  30FB               	movlw	251
  2704  0174  00FC               	movwf	??_ProcessUSBTransactions
  2705  0175  087C               	movf	??_ProcessUSBTransactions,w
  2706  0176  003D               	movlb	29	; select bank29
  2707  0177  0590               	andwf	16,f	;volatile
  2708  0178                     i1l2309:	
  2709                           
  2710                           ;Source/Usb.c: 879:     if(UCONbits.SUSPND == 1)
  2711  0178  1C8E               	btfss	14,1	;volatile
  2712  0179  297B               	goto	u245_21
  2713  017A  297C               	goto	u245_20
  2714  017B                     u245_21:	
  2715  017B  2980               	goto	i1l408
  2716  017C                     u245_20:	
  2717  017C                     i1l2311:	
  2718                           
  2719                           ;Source/Usb.c: 880:     {;Source/Usb.c: 881:         UIR = 0;
  2720  017C  0190               	clrf	16	;volatile
  2721  017D                     i1l2313:	
  2722                           
  2723                           ;Source/Usb.c: 882:         PIR2bits.USBIF = 0;
  2724  017D  0020               	movlb	0	; select bank0
  2725  017E  1112               	bcf	18,2	;volatile
  2726  017F  29ED               	goto	i1l406
  2727  0180                     i1l408:	
  2728                           ;Source/Usb.c: 884:     }
  2729                           
  2730                           
  2731                           ;Source/Usb.c: 887:     if (UIRbits.URSTIF && UIEbits.URSTIE)
  2732  0180  1C10               	btfss	16,0	;volatile
  2733  0181  2983               	goto	u246_21
  2734  0182  2984               	goto	u246_20
  2735  0183                     u246_21:	
  2736  0183  2990               	goto	i1l2323
  2737  0184                     u246_20:	
  2738  0184                     i1l2317:	
  2739  0184  1C12               	btfss	18,0	;volatile
  2740  0185  2987               	goto	u247_21
  2741  0186  2988               	goto	u247_20
  2742  0187                     u247_21:	
  2743  0187  2990               	goto	i1l2323
  2744  0188                     u247_20:	
  2745  0188                     i1l2319:	
  2746                           
  2747                           ;Source/Usb.c: 888:     {;Source/Usb.c: 889:         BusReset();
  2748  0188  3187  2717  3181   	fcall	_BusReset
  2749  018B                     i1l2321:	
  2750                           
  2751                           ;Source/Usb.c: 890:      UIR &= ~(0x01);
  2752  018B  30FE               	movlw	254
  2753  018C  00FC               	movwf	??_ProcessUSBTransactions
  2754  018D  087C               	movf	??_ProcessUSBTransactions,w
  2755  018E  003D               	movlb	29	; select bank29
  2756  018F  0590               	andwf	16,f	;volatile
  2757  0190                     i1l2323:	
  2758                           
  2759                           ;Source/Usb.c: 893:     if (UIRbits.IDLEIF && UIEbits.IDLEIE)
  2760  0190  1E10               	btfss	16,4	;volatile
  2761  0191  2993               	goto	u248_21
  2762  0192  2994               	goto	u248_20
  2763  0193                     u248_21:	
  2764  0193  29A0               	goto	i1l2331
  2765  0194                     u248_20:	
  2766  0194                     i1l2325:	
  2767  0194  1E12               	btfss	18,4	;volatile
  2768  0195  2997               	goto	u249_21
  2769  0196  2998               	goto	u249_20
  2770  0197                     u249_21:	
  2771  0197  29A0               	goto	i1l2331
  2772  0198                     u249_20:	
  2773  0198                     i1l2327:	
  2774                           
  2775                           ;Source/Usb.c: 894:     {;Source/Usb.c: 896:         Suspend();
  2776  0198  318F  27F0  3181   	fcall	_Suspend
  2777  019B                     i1l2329:	
  2778                           
  2779                           ;Source/Usb.c: 897:      UIR &= ~(0x10);
  2780  019B  30EF               	movlw	239
  2781  019C  00FC               	movwf	??_ProcessUSBTransactions
  2782  019D  087C               	movf	??_ProcessUSBTransactions,w
  2783  019E  003D               	movlb	29	; select bank29
  2784  019F  0590               	andwf	16,f	;volatile
  2785  01A0                     i1l2331:	
  2786                           
  2787                           ;Source/Usb.c: 900:     if (UIRbits.SOFIF && UIEbits.SOFIE)
  2788  01A0  1F10               	btfss	16,6	;volatile
  2789  01A1  29A3               	goto	u250_21
  2790  01A2  29A4               	goto	u250_20
  2791  01A3                     u250_21:	
  2792  01A3  29B0               	goto	i1l2339
  2793  01A4                     u250_20:	
  2794  01A4                     i1l2333:	
  2795  01A4  1F12               	btfss	18,6	;volatile
  2796  01A5  29A7               	goto	u251_21
  2797  01A6  29A8               	goto	u251_20
  2798  01A7                     u251_21:	
  2799  01A7  29B0               	goto	i1l2339
  2800  01A8                     u251_20:	
  2801  01A8                     i1l2335:	
  2802                           
  2803                           ;Source/Usb.c: 901:     {;Source/Usb.c: 902:         StartOfFrame();
  2804  01A8  318F  27DF  3181   	fcall	_StartOfFrame
  2805  01AB                     i1l2337:	
  2806                           
  2807                           ;Source/Usb.c: 903:         UIR &= ~(0x40);
  2808  01AB  30BF               	movlw	191
  2809  01AC  00FC               	movwf	??_ProcessUSBTransactions
  2810  01AD  087C               	movf	??_ProcessUSBTransactions,w
  2811  01AE  003D               	movlb	29	; select bank29
  2812  01AF  0590               	andwf	16,f	;volatile
  2813  01B0                     i1l2339:	
  2814                           
  2815                           ;Source/Usb.c: 906:     if (UIRbits.STALLIF && UIEbits.STALLIE)
  2816  01B0  1E90               	btfss	16,5	;volatile
  2817  01B1  29B3               	goto	u252_21
  2818  01B2  29B4               	goto	u252_20
  2819  01B3                     u252_21:	
  2820  01B3  29C0               	goto	i1l2347
  2821  01B4                     u252_20:	
  2822  01B4                     i1l2341:	
  2823  01B4  1E92               	btfss	18,5	;volatile
  2824  01B5  29B7               	goto	u253_21
  2825  01B6  29B8               	goto	u253_20
  2826  01B7                     u253_21:	
  2827  01B7  29C0               	goto	i1l2347
  2828  01B8                     u253_20:	
  2829  01B8                     i1l2343:	
  2830                           
  2831                           ;Source/Usb.c: 907:     {;Source/Usb.c: 908:         Stall();
  2832  01B8  3187  27E0  3181   	fcall	_Stall
  2833  01BB                     i1l2345:	
  2834                           
  2835                           ;Source/Usb.c: 909:         UIR &= ~(0x20);
  2836  01BB  30DF               	movlw	223
  2837  01BC  00FC               	movwf	??_ProcessUSBTransactions
  2838  01BD  087C               	movf	??_ProcessUSBTransactions,w
  2839  01BE  003D               	movlb	29	; select bank29
  2840  01BF  0590               	andwf	16,f	;volatile
  2841  01C0                     i1l2347:	
  2842                           
  2843                           ;Source/Usb.c: 912:     if (UIRbits.UERRIF && UIEbits.UERRIE)
  2844  01C0  1C90               	btfss	16,1	;volatile
  2845  01C1  29C3               	goto	u254_21
  2846  01C2  29C4               	goto	u254_20
  2847  01C3                     u254_21:	
  2848  01C3  29CE               	goto	i1l2357
  2849  01C4                     u254_20:	
  2850  01C4                     i1l2349:	
  2851  01C4  1C92               	btfss	18,1	;volatile
  2852  01C5  29C7               	goto	u255_21
  2853  01C6  29C8               	goto	u255_20
  2854  01C7                     u255_21:	
  2855  01C7  29CE               	goto	i1l2357
  2856  01C8                     u255_20:	
  2857  01C8                     i1l2351:	
  2858                           
  2859                           ;Source/Usb.c: 913:     {;Source/Usb.c: 916:         UIRbits.UERRIF = 0;
  2860  01C8  1090               	bcf	16,1	;volatile
  2861  01C9                     i1l2353:	
  2862                           
  2863                           ;Source/Usb.c: 917:         UEIR = 0 ;
  2864  01C9  0193               	clrf	19	;volatile
  2865  01CA                     i1l2355:	
  2866                           
  2867                           ;Source/Usb.c: 918:         UIR &= ~(0x02);
  2868  01CA  30FD               	movlw	253
  2869  01CB  00FC               	movwf	??_ProcessUSBTransactions
  2870  01CC  087C               	movf	??_ProcessUSBTransactions,w
  2871  01CD  0590               	andwf	16,f	;volatile
  2872  01CE                     i1l2357:	
  2873                           
  2874                           ;Source/Usb.c: 922:     if (DeviceState < 0x03)
  2875  01CE  3003               	movlw	3
  2876  01CF  0020               	movlb	0	; select bank0
  2877  01D0  023F               	subwf	_DeviceState,w
  2878  01D1  1803               	skipnc
  2879  01D2  29D4               	goto	u256_21
  2880  01D3  29D5               	goto	u256_20
  2881  01D4                     u256_21:	
  2882  01D4  29DA               	goto	i1l414
  2883  01D5                     u256_20:	
  2884  01D5                     i1l2359:	
  2885                           
  2886                           ;Source/Usb.c: 923:     {;Source/Usb.c: 924:         UIR = 0;
  2887  01D5  003D               	movlb	29	; select bank29
  2888  01D6  0190               	clrf	16	;volatile
  2889  01D7                     i1l2361:	
  2890                           
  2891                           ;Source/Usb.c: 925:         PIR2bits.USBIF = 0;
  2892  01D7  0020               	movlb	0	; select bank0
  2893  01D8  1112               	bcf	18,2	;volatile
  2894  01D9  29ED               	goto	i1l406
  2895  01DA                     i1l414:	
  2896                           ;Source/Usb.c: 927:     }
  2897                           
  2898                           
  2899                           ;Source/Usb.c: 930:     if(UIRbits.TRNIF && UIEbits.TRNIE)
  2900  01DA  003D               	movlb	29	; select bank29
  2901  01DB  1D90               	btfss	16,3	;volatile
  2902  01DC  29DE               	goto	u257_21
  2903  01DD  29DF               	goto	u257_20
  2904  01DE                     u257_21:	
  2905  01DE  29EB               	goto	i1l2371
  2906  01DF                     u257_20:	
  2907  01DF                     i1l2365:	
  2908  01DF  1D92               	btfss	18,3	;volatile
  2909  01E0  29E2               	goto	u258_21
  2910  01E1  29E3               	goto	u258_20
  2911  01E2                     u258_21:	
  2912  01E2  29EB               	goto	i1l2371
  2913  01E3                     u258_20:	
  2914  01E3                     i1l2367:	
  2915                           
  2916                           ;Source/Usb.c: 931:     {;Source/Usb.c: 932:         ProcessControlTransfer();
  2917  01E3  3183  236B  3181   	fcall	_ProcessControlTransfer
  2918  01E6                     i1l2369:	
  2919                           
  2920                           ;Source/Usb.c: 933:         UIR &= ~(0x08);
  2921  01E6  30F7               	movlw	247
  2922  01E7  00FC               	movwf	??_ProcessUSBTransactions
  2923  01E8  087C               	movf	??_ProcessUSBTransactions,w
  2924  01E9  003D               	movlb	29	; select bank29
  2925  01EA  0590               	andwf	16,f	;volatile
  2926  01EB                     i1l2371:	
  2927                           
  2928                           ;Source/Usb.c: 935:     PIR2bits.USBIF = 0;
  2929  01EB  0020               	movlb	0	; select bank0
  2930  01EC  1112               	bcf	18,2	;volatile
  2931  01ED                     i1l406:	
  2932  01ED  0008               	return
  2933  01EE                     __end_of_ProcessUSBTransactions:	
  2934                           
  2935                           	psect	text17
  2936  0FF8                     __ptext17:	
  2937 ;; *************** function _UnSuspend *****************
  2938 ;; Defined at:
  2939 ;;		line 798 in file "Source/Usb.c"
  2940 ;; Parameters:    Size  Location     Type
  2941 ;;		None
  2942 ;; Auto vars:     Size  Location     Type
  2943 ;;		None
  2944 ;; Return value:  Size  Location     Type
  2945 ;;                  1    wreg      void 
  2946 ;; Registers used:
  2947 ;;		wreg, status,2, status,0
  2948 ;; Tracked objects:
  2949 ;;		On entry : 0/0
  2950 ;;		On exit  : 0/0
  2951 ;;		Unchanged: 0/0
  2952 ;; Data sizes:     COMMON   BANK0   BANK1   BANK2   BANK3   BANK4   BANK5   BANK6   BANK7   BANK8   BANK9  BANK10  BANK1
      +1  BANK12
  2953 ;;      Params:         0       0       0       0       0       0       0       0       0       0       0       0       
      +0       0
  2954 ;;      Locals:         0       0       0       0       0       0       0       0       0       0       0       0       
      +0       0
  2955 ;;      Temps:          1       0       0       0       0       0       0       0       0       0       0       0       
      +0       0
  2956 ;;      Totals:         1       0       0       0       0       0       0       0       0       0       0       0       
      +0       0
  2957 ;;Total ram usage:        1 bytes
  2958 ;; Hardware stack levels used:    1
  2959 ;; This function calls:
  2960 ;;		Nothing
  2961 ;; This function is called by:
  2962 ;;		_ProcessUSBTransactions
  2963 ;; This function uses a non-reentrant model
  2964 ;;
  2965                           
  2966                           
  2967                           ;psect for function _UnSuspend
  2968  0FF8                     _UnSuspend:	
  2969  0FF8                     i1l2257:	
  2970                           ;incstack = 0
  2971                           ; Regs used in _UnSuspend: [wreg+status,2+status,0]
  2972                           
  2973                           
  2974                           ;Source/Usb.c: 800:     UCONbits.SUSPND = 0;
  2975  0FF8  003D               	movlb	29	; select bank29
  2976  0FF9  108E               	bcf	14,1	;volatile
  2977                           
  2978                           ;Source/Usb.c: 801:     UIEbits.ACTVIE = 0;
  2979  0FFA  1112               	bcf	18,2	;volatile
  2980  0FFB                     i1l2259:	
  2981                           
  2982                           ;Source/Usb.c: 802:     UIR &= 0xFB;
  2983  0FFB  30FB               	movlw	251
  2984  0FFC  00F0               	movwf	??_UnSuspend
  2985  0FFD  0870               	movf	??_UnSuspend,w
  2986  0FFE  0590               	andwf	16,f	;volatile
  2987  0FFF                     i1l386:	
  2988  0FFF  0008               	return
  2989  1000                     __end_of_UnSuspend:	
  2990                           
  2991                           	psect	text18
  2992  0FF0                     __ptext18:	
  2993 ;; *************** function _Suspend *****************
  2994 ;; Defined at:
  2995 ;;		line 826 in file "Source/Usb.c"
  2996 ;; Parameters:    Size  Location     Type
  2997 ;;		None
  2998 ;; Auto vars:     Size  Location     Type
  2999 ;;		None
  3000 ;; Return value:  Size  Location     Type
  3001 ;;                  1    wreg      void 
  3002 ;; Registers used:
  3003 ;;		wreg, status,2, status,0
  3004 ;; Tracked objects:
  3005 ;;		On entry : 0/0
  3006 ;;		On exit  : 0/0
  3007 ;;		Unchanged: 0/0
  3008 ;; Data sizes:     COMMON   BANK0   BANK1   BANK2   BANK3   BANK4   BANK5   BANK6   BANK7   BANK8   BANK9  BANK10  BANK1
      +1  BANK12
  3009 ;;      Params:         0       0       0       0       0       0       0       0       0       0       0       0       
      +0       0
  3010 ;;      Locals:         0       0       0       0       0       0       0       0       0       0       0       0       
      +0       0
  3011 ;;      Temps:          1       0       0       0       0       0       0       0       0       0       0       0       
      +0       0
  3012 ;;      Totals:         1       0       0       0       0       0       0       0       0       0       0       0       
      +0       0
  3013 ;;Total ram usage:        1 bytes
  3014 ;; Hardware stack levels used:    1
  3015 ;; This function calls:
  3016 ;;		Nothing
  3017 ;; This function is called by:
  3018 ;;		_ProcessUSBTransactions
  3019 ;; This function uses a non-reentrant model
  3020 ;;
  3021                           
  3022                           
  3023                           ;psect for function _Suspend
  3024  0FF0                     _Suspend:	
  3025  0FF0                     i1l2271:	
  3026                           ;incstack = 0
  3027                           ; Regs used in _Suspend: [wreg+status,2+status,0]
  3028                           
  3029                           
  3030                           ;Source/Usb.c: 828:     UIEbits.ACTVIE = 1;
  3031  0FF0  003D               	movlb	29	; select bank29
  3032  0FF1  1512               	bsf	18,2	;volatile
  3033  0FF2                     i1l2273:	
  3034                           
  3035                           ;Source/Usb.c: 829:     UIR &= 0xEF;
  3036  0FF2  30EF               	movlw	239
  3037  0FF3  00F0               	movwf	??_Suspend
  3038  0FF4  0870               	movf	??_Suspend,w
  3039  0FF5  0590               	andwf	16,f	;volatile
  3040  0FF6                     i1l2275:	
  3041                           
  3042                           ;Source/Usb.c: 830:     UCONbits.SUSPND = 1;
  3043  0FF6  148E               	bsf	14,1	;volatile
  3044  0FF7                     i1l396:	
  3045  0FF7  0008               	return
  3046  0FF8                     __end_of_Suspend:	
  3047                           
  3048                           	psect	text19
  3049  0FDF                     __ptext19:	
  3050 ;; *************** function _StartOfFrame *****************
  3051 ;; Defined at:
  3052 ;;		line 807 in file "Source/Usb.c"
  3053 ;; Parameters:    Size  Location     Type
  3054 ;;		None
  3055 ;; Auto vars:     Size  Location     Type
  3056 ;;		None
  3057 ;; Return value:  Size  Location     Type
  3058 ;;                  1    wreg      void 
  3059 ;; Registers used:
  3060 ;;		None
  3061 ;; Tracked objects:
  3062 ;;		On entry : 0/0
  3063 ;;		On exit  : 0/0
  3064 ;;		Unchanged: 0/0
  3065 ;; Data sizes:     COMMON   BANK0   BANK1   BANK2   BANK3   BANK4   BANK5   BANK6   BANK7   BANK8   BANK9  BANK10  BANK1
      +1  BANK12
  3066 ;;      Params:         0       0       0       0       0       0       0       0       0       0       0       0       
      +0       0
  3067 ;;      Locals:         0       0       0       0       0       0       0       0       0       0       0       0       
      +0       0
  3068 ;;      Temps:          0       0       0       0       0       0       0       0       0       0       0       0       
      +0       0
  3069 ;;      Totals:         0       0       0       0       0       0       0       0       0       0       0       0       
      +0       0
  3070 ;;Total ram usage:        0 bytes
  3071 ;; Hardware stack levels used:    1
  3072 ;; This function calls:
  3073 ;;		Nothing
  3074 ;; This function is called by:
  3075 ;;		_ProcessUSBTransactions
  3076 ;; This function uses a non-reentrant model
  3077 ;;
  3078                           
  3079                           
  3080                           ;psect for function _StartOfFrame
  3081  0FDF                     _StartOfFrame:	
  3082  0FDF                     i1l2261:	
  3083                           ;incstack = 0
  3084                           ; Regs used in _StartOfFrame: []
  3085                           
  3086                           
  3087                           ;Source/Usb.c: 810:     UIRbits.SOFIF = 0;
  3088  0FDF  003D               	movlb	29	; select bank29
  3089  0FE0  1310               	bcf	16,6	;volatile
  3090  0FE1                     i1l389:	
  3091  0FE1  0008               	return
  3092  0FE2                     __end_of_StartOfFrame:	
  3093                           
  3094                           	psect	text20
  3095  07E0                     __ptext20:	
  3096 ;; *************** function _Stall *****************
  3097 ;; Defined at:
  3098 ;;		line 814 in file "Source/Usb.c"
  3099 ;; Parameters:    Size  Location     Type
  3100 ;;		None
  3101 ;; Auto vars:     Size  Location     Type
  3102 ;;		None
  3103 ;; Return value:  Size  Location     Type
  3104 ;;                  1    wreg      void 
  3105 ;; Registers used:
  3106 ;;		wreg, status,2, status,0, pclath, cstack
  3107 ;; Tracked objects:
  3108 ;;		On entry : 0/0
  3109 ;;		On exit  : 0/0
  3110 ;;		Unchanged: 0/0
  3111 ;; Data sizes:     COMMON   BANK0   BANK1   BANK2   BANK3   BANK4   BANK5   BANK6   BANK7   BANK8   BANK9  BANK10  BANK1
      +1  BANK12
  3112 ;;      Params:         0       0       0       0       0       0       0       0       0       0       0       0       
      +0       0
  3113 ;;      Locals:         0       0       0       0       0       0       0       0       0       0       0       0       
      +0       0
  3114 ;;      Temps:          0       0       0       0       0       0       0       0       0       0       0       0       
      +0       0
  3115 ;;      Totals:         0       0       0       0       0       0       0       0       0       0       0       0       
      +0       0
  3116 ;;Total ram usage:        0 bytes
  3117 ;; Hardware stack levels used:    1
  3118 ;; Hardware stack levels required when called:    1
  3119 ;; This function calls:
  3120 ;;		_WaitForSetupStage
  3121 ;; This function is called by:
  3122 ;;		_ProcessUSBTransactions
  3123 ;; This function uses a non-reentrant model
  3124 ;;
  3125                           
  3126                           
  3127                           ;psect for function _Stall
  3128  07E0                     _Stall:	
  3129  07E0                     i1l2263:	
  3130                           ;incstack = 0
  3131                           ; Regs used in _Stall: [wreg+status,2+status,0+pclath+cstack]
  3132                           
  3133                           
  3134                           ;Source/Usb.c: 816:     if(UEP0bits.EPSTALL == 1)
  3135  07E0  003D               	movlb	29	; select bank29
  3136  07E1  1C18               	btfss	24,0	;volatile
  3137  07E2  2FE4               	goto	u240_21
  3138  07E3  2FE5               	goto	u240_20
  3139  07E4                     u240_21:	
  3140  07E4  2FEA               	goto	i1l2269
  3141  07E5                     u240_20:	
  3142  07E5                     i1l2265:	
  3143                           
  3144                           ;Source/Usb.c: 817:     {;Source/Usb.c: 819:         WaitForSetupStage();
  3145  07E5  3187  27D2  3187   	fcall	_WaitForSetupStage
  3146  07E8                     i1l2267:	
  3147                           
  3148                           ;Source/Usb.c: 820:         UEP0bits.EPSTALL = 0;
  3149  07E8  003D               	movlb	29	; select bank29
  3150  07E9  1018               	bcf	24,0	;volatile
  3151  07EA                     i1l2269:	
  3152                           
  3153                           ;Source/Usb.c: 822:     UIRbits.STALLIF = 0;
  3154  07EA  1290               	bcf	16,5	;volatile
  3155  07EB                     i1l393:	
  3156  07EB  0008               	return
  3157  07EC                     __end_of_Stall:	
  3158                           
  3159                           	psect	text21
  3160  036B                     __ptext21:	
  3161 ;; *************** function _ProcessControlTransfer *****************
  3162 ;; Defined at:
  3163 ;;		line 693 in file "Source/Usb.c"
  3164 ;; Parameters:    Size  Location     Type
  3165 ;;		None
  3166 ;; Auto vars:     Size  Location     Type
  3167 ;;  PID             1   11[COMMON] unsigned char 
  3168 ;; Return value:  Size  Location     Type
  3169 ;;                  1    wreg      void 
  3170 ;; Registers used:
  3171 ;;		wreg, fsr0l, fsr0h, fsr1l, fsr1h, status,2, status,0, pclath, cstack
  3172 ;; Tracked objects:
  3173 ;;		On entry : 0/0
  3174 ;;		On exit  : 0/0
  3175 ;;		Unchanged: 0/0
  3176 ;; Data sizes:     COMMON   BANK0   BANK1   BANK2   BANK3   BANK4   BANK5   BANK6   BANK7   BANK8   BANK9  BANK10  BANK1
      +1  BANK12
  3177 ;;      Params:         0       0       0       0       0       0       0       0       0       0       0       0       
      +0       0
  3178 ;;      Locals:         1       0       0       0       0       0       0       0       0       0       0       0       
      +0       0
  3179 ;;      Temps:          2       0       0       0       0       0       0       0       0       0       0       0       
      +0       0
  3180 ;;      Totals:         3       0       0       0       0       0       0       0       0       0       0       0       
      +0       0
  3181 ;;Total ram usage:        3 bytes
  3182 ;; Hardware stack levels used:    1
  3183 ;; Hardware stack levels required when called:    3
  3184 ;; This function calls:
  3185 ;;		_InDataStage
  3186 ;;		_OutDataStage
  3187 ;;		_SetupStage
  3188 ;;		_WaitForSetupStage
  3189 ;; This function is called by:
  3190 ;;		_ProcessUSBTransactions
  3191 ;; This function uses a non-reentrant model
  3192 ;;
  3193                           
  3194                           
  3195                           ;psect for function _ProcessControlTransfer
  3196  036B                     _ProcessControlTransfer:	
  3197  036B                     i1l2215:	
  3198                           ;incstack = 0
  3199                           ; Regs used in _ProcessControlTransfer: [wreg-fsr1h+status,2+status,0+pclath+cstack]
  3200                           
  3201                           
  3202                           ;Source/Usb.c: 695:     if (USTAT == 0)
  3203  036B  003D               	movlb	29	; select bank29
  3204  036C  080F               	movf	15,w	;volatile
  3205  036D  1D03               	btfss	3,2
  3206  036E  2B70               	goto	u229_21
  3207  036F  2B71               	goto	u229_20
  3208  0370                     u229_21:	
  3209  0370  2BA2               	goto	i1l2233
  3210  0371                     u229_20:	
  3211  0371                     i1l2217:	
  3212                           
  3213                           ;Source/Usb.c: 696:     {;Source/Usb.c: 698:         uint8_t PID = (Interfaces[0].Output
      +                          .Stat & 0x3C) >> 2;
  3214  0371  0020               	movlb	0	; select bank0
  3215  0372  0820               	movf	32,w	;volatile
  3216  0373  00F9               	movwf	??_ProcessControlTransfer
  3217  0374  3002               	movlw	2
  3218  0375                     u230_25:	
  3219  0375  36F9               	lsrf	??_ProcessControlTransfer,f
  3220  0376  0B89               	decfsz	9,f
  3221  0377  2B75               	goto	u230_25
  3222  0378  0879               	movf	??_ProcessControlTransfer,w
  3223  0379  390F               	andlw	15
  3224  037A  00FA               	movwf	??_ProcessControlTransfer+1
  3225  037B  087A               	movf	??_ProcessControlTransfer+1,w
  3226  037C  00FB               	movwf	ProcessControlTransfer@PID
  3227                           
  3228                           ;Source/Usb.c: 699:         if (PID == 0x0D)
  3229  037D  300D               	movlw	13
  3230  037E  067B               	xorwf	ProcessControlTransfer@PID,w
  3231  037F  1D03               	btfss	3,2
  3232  0380  2B82               	goto	u231_21
  3233  0381  2B83               	goto	u231_20
  3234  0382                     u231_21:	
  3235  0382  2B87               	goto	i1l2221
  3236  0383                     u231_20:	
  3237  0383                     i1l2219:	
  3238                           
  3239                           ;Source/Usb.c: 701:             SetupStage();
  3240  0383  3183  23DA  3183   	fcall	_SetupStage
  3241  0386  2BD9               	goto	i1l368
  3242  0387                     i1l2221:	
  3243  0387  033A               	decf	_CtrlTransferStage,w
  3244  0388  1D03               	btfss	3,2
  3245  0389  2B8B               	goto	u232_21
  3246  038A  2B8C               	goto	u232_20
  3247  038B                     u232_21:	
  3248  038B  2B9E               	goto	i1l2231
  3249  038C                     u232_20:	
  3250  038C                     i1l2223:	
  3251                           
  3252                           ;Source/Usb.c: 703:         {;Source/Usb.c: 704:             OutDataStage();
  3253  038C  3186  2645  3183   	fcall	_OutDataStage
  3254  038F                     i1l2225:	
  3255                           
  3256                           ;Source/Usb.c: 705:             if(Interfaces[0].Output.Stat & 0x40)
  3257  038F  0020               	movlb	0	; select bank0
  3258  0390  1F20               	btfss	32,6	;volatile
  3259  0391  2B93               	goto	u233_21
  3260  0392  2B94               	goto	u233_20
  3261  0393                     u233_21:	
  3262  0393  2B99               	goto	i1l2229
  3263  0394                     u233_20:	
  3264  0394                     i1l2227:	
  3265                           
  3266                           ;Source/Usb.c: 706:                 Interfaces[0].Output.Stat = 0x80 | 0x08;
  3267  0394  3088               	movlw	136
  3268  0395  00F9               	movwf	??_ProcessControlTransfer
  3269  0396  0879               	movf	??_ProcessControlTransfer,w
  3270  0397  00A0               	movwf	32	;volatile
  3271  0398  2BD9               	goto	i1l368
  3272  0399                     i1l2229:	
  3273                           
  3274                           ;Source/Usb.c: 708:                 Interfaces[0].Output.Stat = 0x80 | 0x40 | 0x08;
  3275  0399  30C8               	movlw	200
  3276  039A  00F9               	movwf	??_ProcessControlTransfer
  3277  039B  0879               	movf	??_ProcessControlTransfer,w
  3278  039C  00A0               	movwf	32	;volatile
  3279  039D  2BD9               	goto	i1l368
  3280  039E                     i1l2231:	
  3281                           
  3282                           ;Source/Usb.c: 711:         {;Source/Usb.c: 713:             WaitForSetupStage();
  3283  039E  3187  27D2  3183   	fcall	_WaitForSetupStage
  3284  03A1  2BD9               	goto	i1l368
  3285  03A2                     i1l2233:	
  3286  03A2  3004               	movlw	4
  3287  03A3  060F               	xorwf	15,w	;volatile
  3288  03A4  1D03               	btfss	3,2
  3289  03A5  2BA7               	goto	u234_21
  3290  03A6  2BA8               	goto	u234_20
  3291  03A7                     u234_21:	
  3292  03A7  2BD9               	goto	i1l368
  3293  03A8                     u234_20:	
  3294  03A8                     i1l2235:	
  3295                           
  3296                           ;Source/Usb.c: 718:     {;Source/Usb.c: 720:         if ((UADDR == 0) && (DeviceState ==
      +                           0x04))
  3297  03A8  0816               	movf	22,w	;volatile
  3298  03A9  1D03               	btfss	3,2
  3299  03AA  2BAC               	goto	u235_21
  3300  03AB  2BAD               	goto	u235_20
  3301  03AC                     u235_21:	
  3302  03AC  2BC1               	goto	i1l2245
  3303  03AD                     u235_20:	
  3304  03AD                     i1l2237:	
  3305  03AD  3004               	movlw	4
  3306  03AE  0020               	movlb	0	; select bank0
  3307  03AF  063F               	xorwf	_DeviceState,w
  3308  03B0  1D03               	btfss	3,2
  3309  03B1  2BB3               	goto	u236_21
  3310  03B2  2BB4               	goto	u236_20
  3311  03B3                     u236_21:	
  3312  03B3  2BC1               	goto	i1l2245
  3313  03B4                     u236_20:	
  3314  03B4                     i1l2239:	
  3315                           
  3316                           ;Source/Usb.c: 721:         {;Source/Usb.c: 724:             UADDR = SetupPacket.wValue0
      +                          ;
  3317  03B4  0842               	movf	_SetupPacket+2,w	;volatile
  3318  03B5  003D               	movlb	29	; select bank29
  3319  03B6  0096               	movwf	22	;volatile
  3320  03B7                     i1l2241:	
  3321                           
  3322                           ;Source/Usb.c: 725:             if(UADDR == 0)
  3323  03B7  0816               	movf	22,w	;volatile
  3324  03B8  1D03               	btfss	3,2
  3325  03B9  2BBB               	goto	u237_21
  3326  03BA  2BBC               	goto	u237_20
  3327  03BB                     u237_21:	
  3328  03BB  2BC1               	goto	i1l2245
  3329  03BC                     u237_20:	
  3330  03BC                     i1l2243:	
  3331                           
  3332                           ;Source/Usb.c: 728:                 DeviceState = 0x03;
  3333  03BC  3003               	movlw	3
  3334  03BD  00F9               	movwf	??_ProcessControlTransfer
  3335  03BE  0879               	movf	??_ProcessControlTransfer,w
  3336  03BF  0020               	movlb	0	; select bank0
  3337  03C0  00BF               	movwf	_DeviceState
  3338  03C1                     i1l2245:	
  3339                           
  3340                           ;Source/Usb.c: 731:         if (CtrlTransferStage == 0x02)
  3341  03C1  3002               	movlw	2
  3342  03C2  0020               	movlb	0	; select bank0
  3343  03C3  063A               	xorwf	_CtrlTransferStage,w
  3344  03C4  1D03               	btfss	3,2
  3345  03C5  2BC7               	goto	u238_21
  3346  03C6  2BC8               	goto	u238_20
  3347  03C7                     u238_21:	
  3348  03C7  2B9E               	goto	i1l2231
  3349  03C8                     u238_20:	
  3350  03C8                     i1l2247:	
  3351                           
  3352                           ;Source/Usb.c: 732:         {;Source/Usb.c: 734:             InDataStage();
  3353  03C8  3182  2279  3183   	fcall	_InDataStage
  3354  03CB                     i1l2249:	
  3355                           
  3356                           ;Source/Usb.c: 737:             if(Interfaces[0].Input.Stat & 0x40)
  3357  03CB  0020               	movlb	0	; select bank0
  3358  03CC  1F24               	btfss	36,6	;volatile
  3359  03CD  2BCF               	goto	u239_21
  3360  03CE  2BD0               	goto	u239_20
  3361  03CF                     u239_21:	
  3362  03CF  2BD5               	goto	i1l2253
  3363  03D0                     u239_20:	
  3364  03D0                     i1l2251:	
  3365                           
  3366                           ;Source/Usb.c: 738:                 Interfaces[0].Input.Stat = 0x80 | 0x08;
  3367  03D0  3088               	movlw	136
  3368  03D1  00F9               	movwf	??_ProcessControlTransfer
  3369  03D2  0879               	movf	??_ProcessControlTransfer,w
  3370  03D3  00A4               	movwf	36	;volatile
  3371  03D4  2BD9               	goto	i1l368
  3372  03D5                     i1l2253:	
  3373                           
  3374                           ;Source/Usb.c: 740:                 Interfaces[0].Input.Stat = 0x80 | 0x40 | 0x08;
  3375  03D5  30C8               	movlw	200
  3376  03D6  00F9               	movwf	??_ProcessControlTransfer
  3377  03D7  0879               	movf	??_ProcessControlTransfer,w
  3378  03D8  00A4               	movwf	36	;volatile
  3379  03D9                     i1l368:	
  3380  03D9  0008               	return
  3381  03DA                     __end_of_ProcessControlTransfer:	
  3382                           
  3383                           	psect	text22
  3384  03DA                     __ptext22:	
  3385 ;; *************** function _SetupStage *****************
  3386 ;; Defined at:
  3387 ;;		line 612 in file "Source/Usb.c"
  3388 ;; Parameters:    Size  Location     Type
  3389 ;;		None
  3390 ;; Auto vars:     Size  Location     Type
  3391 ;;		None
  3392 ;; Return value:  Size  Location     Type
  3393 ;;                  1    wreg      void 
  3394 ;; Registers used:
  3395 ;;		wreg, fsr0l, fsr0h, fsr1l, fsr1h, status,2, status,0, pclath, cstack
  3396 ;; Tracked objects:
  3397 ;;		On entry : 0/0
  3398 ;;		On exit  : 0/0
  3399 ;;		Unchanged: 0/0
  3400 ;; Data sizes:     COMMON   BANK0   BANK1   BANK2   BANK3   BANK4   BANK5   BANK6   BANK7   BANK8   BANK9  BANK10  BANK1
      +1  BANK12
  3401 ;;      Params:         0       0       0       0       0       0       0       0       0       0       0       0       
      +0       0
  3402 ;;      Locals:         0       0       0       0       0       0       0       0       0       0       0       0       
      +0       0
  3403 ;;      Temps:          1       0       0       0       0       0       0       0       0       0       0       0       
      +0       0
  3404 ;;      Totals:         1       0       0       0       0       0       0       0       0       0       0       0       
      +0       0
  3405 ;;Total ram usage:        1 bytes
  3406 ;; Hardware stack levels used:    1
  3407 ;; Hardware stack levels required when called:    2
  3408 ;; This function calls:
  3409 ;;		_InDataStage
  3410 ;;		_ProcessHIDRequest
  3411 ;;		_ProcessStandardRequest
  3412 ;; This function is called by:
  3413 ;;		_ProcessControlTransfer
  3414 ;; This function uses a non-reentrant model
  3415 ;;
  3416                           
  3417                           
  3418                           ;psect for function _SetupStage
  3419  03DA                     _SetupStage:	
  3420  03DA                     i1l2077:	
  3421                           ;incstack = 0
  3422                           ; Regs used in _SetupStage: [wreg-fsr1h+status,2+status,0+pclath+cstack]
  3423                           
  3424                           
  3425                           ;Source/Usb.c: 616:     Interfaces[0].Input.Stat &= ~0x80;
  3426  03DA  307F               	movlw	127
  3427  03DB  00F8               	movwf	??_SetupStage
  3428  03DC  0878               	movf	??_SetupStage,w
  3429  03DD  0020               	movlb	0	; select bank0
  3430  03DE  05A4               	andwf	36,f	;volatile
  3431                           
  3432                           ;Source/Usb.c: 617:     Interfaces[0].Output.Stat &= ~0x80;
  3433  03DF  307F               	movlw	127
  3434  03E0  00F8               	movwf	??_SetupStage
  3435  03E1  0878               	movf	??_SetupStage,w
  3436  03E2  05A0               	andwf	32,f	;volatile
  3437  03E3                     i1l2079:	
  3438                           
  3439                           ;Source/Usb.c: 620:     CtrlTransferStage = 0x00;
  3440  03E3  01BA               	clrf	_CtrlTransferStage
  3441  03E4                     i1l2081:	
  3442                           
  3443                           ;Source/Usb.c: 621:     RequestHandled = 0;
  3444  03E4  01B8               	clrf	_RequestHandled
  3445  03E5                     i1l2083:	
  3446                           
  3447                           ;Source/Usb.c: 622:     HIDPostProcess = 0;
  3448  03E5  01B9               	clrf	_HIDPostProcess
  3449  03E6                     i1l2085:	
  3450                           
  3451                           ;Source/Usb.c: 623:     wCount = 0;
  3452  03E6  01B0               	clrf	_wCount
  3453  03E7  01B1               	clrf	_wCount+1
  3454  03E8                     i1l2087:	
  3455                           
  3456                           ;Source/Usb.c: 626:     ProcessStandardRequest();
  3457  03E8  3180  20C9  3183   	fcall	_ProcessStandardRequest
  3458  03EB                     i1l2089:	
  3459                           
  3460                           ;Source/Usb.c: 629:     ProcessHIDRequest();
  3461  03EB  3180  202F  3183   	fcall	_ProcessHIDRequest
  3462  03EE                     i1l2091:	
  3463                           
  3464                           ;Source/Usb.c: 633:     if (!RequestHandled)
  3465  03EE  0020               	movlb	0	; select bank0
  3466  03EF  0838               	movf	_RequestHandled,w
  3467  03F0  1D03               	btfss	3,2
  3468  03F1  2BF3               	goto	u209_21
  3469  03F2  2BF4               	goto	u209_20
  3470  03F3                     u209_21:	
  3471  03F3  2C03               	goto	i1l341
  3472  03F4                     u209_20:	
  3473  03F4                     i1l2093:	
  3474                           
  3475                           ;Source/Usb.c: 634:     {;Source/Usb.c: 636:         Interfaces[0].Output.Cnt = 0x08;
  3476  03F4  3008               	movlw	8
  3477  03F5  00A1               	movwf	33	;volatile
  3478  03F6                     i1l2095:	
  3479                           
  3480                           ;Source/Usb.c: 637:         Interfaces[0].Output.ADDR = ((unsigned int)(((unsigned long)
      +                          &SetupPacket) & 0xFFFF));
  3481  03F6  3040               	movlw	low _SetupPacket
  3482  03F7  00A2               	movwf	34	;volatile
  3483  03F8  3000               	movlw	high _SetupPacket
  3484  03F9  00A3               	movwf	35	;volatile
  3485  03FA                     i1l2097:	
  3486                           
  3487                           ;Source/Usb.c: 638:         Interfaces[0].Output.Stat = 0x80 | 0x04;
  3488  03FA  3084               	movlw	132
  3489  03FB  00F8               	movwf	??_SetupStage
  3490  03FC  0878               	movf	??_SetupStage,w
  3491  03FD  00A0               	movwf	32	;volatile
  3492  03FE                     i1l2099:	
  3493                           
  3494                           ;Source/Usb.c: 639:         Interfaces[0].Input.Stat = 0x80 | 0x04;
  3495  03FE  3084               	movlw	132
  3496  03FF  00F8               	movwf	??_SetupStage
  3497  0400  0878               	movf	??_SetupStage,w
  3498  0401  00A4               	movwf	36	;volatile
  3499                           
  3500                           ;Source/Usb.c: 640:     }
  3501  0402  2C41               	goto	i1l2129
  3502  0403                     i1l341:	
  3503                           ;Source/Usb.c: 641:     else if (SetupPacket.bmRequestType & 0x80)
  3504                           
  3505  0403  1FC0               	btfss	_SetupPacket,7	;volatile
  3506  0404  2C06               	goto	u210_21
  3507  0405  2C07               	goto	u210_20
  3508  0406                     u210_21:	
  3509  0406  2C30               	goto	i1l343
  3510  0407                     u210_20:	
  3511  0407                     i1l2101:	
  3512                           
  3513                           ;Source/Usb.c: 642:     {;Source/Usb.c: 644:         if(SetupPacket.wLength < wCount)
  3514  0407  0831               	movf	_wCount+1,w
  3515  0408  0247               	subwf	_SetupPacket+7,w	;volatile
  3516  0409  1D03               	skipz
  3517  040A  2C0D               	goto	u211_25
  3518  040B  0830               	movf	_wCount,w
  3519  040C  0246               	subwf	_SetupPacket+6,w	;volatile
  3520  040D                     u211_25:	
  3521  040D  1803               	skipnc
  3522  040E  2C10               	goto	u211_21
  3523  040F  2C11               	goto	u211_20
  3524  0410                     u211_21:	
  3525  0410  2C15               	goto	i1l2105
  3526  0411                     u211_20:	
  3527  0411                     i1l2103:	
  3528                           
  3529                           ;Source/Usb.c: 645:             wCount = SetupPacket.wLength;
  3530  0411  0847               	movf	_SetupPacket+7,w	;volatile
  3531  0412  00B1               	movwf	_wCount+1
  3532  0413  0846               	movf	_SetupPacket+6,w	;volatile
  3533  0414  00B0               	movwf	_wCount
  3534  0415                     i1l2105:	
  3535                           
  3536                           ;Source/Usb.c: 646:         InDataStage();
  3537  0415  3182  2279  3183   	fcall	_InDataStage
  3538  0418                     i1l2107:	
  3539                           
  3540                           ;Source/Usb.c: 647:         CtrlTransferStage = 0x02;
  3541  0418  3002               	movlw	2
  3542  0419  00F8               	movwf	??_SetupStage
  3543  041A  0878               	movf	??_SetupStage,w
  3544  041B  0020               	movlb	0	; select bank0
  3545  041C  00BA               	movwf	_CtrlTransferStage
  3546  041D                     i1l2109:	
  3547                           
  3548                           ;Source/Usb.c: 649:         Interfaces[0].Output.Cnt = 0x08;
  3549  041D  3008               	movlw	8
  3550  041E  00A1               	movwf	33	;volatile
  3551  041F                     i1l2111:	
  3552                           
  3553                           ;Source/Usb.c: 650:         Interfaces[0].Output.ADDR = ((unsigned int)(((unsigned long)
      +                          &SetupPacket) & 0xFFFF));
  3554  041F  3040               	movlw	low _SetupPacket
  3555  0420  00A2               	movwf	34	;volatile
  3556  0421  3000               	movlw	high _SetupPacket
  3557  0422  00A3               	movwf	35	;volatile
  3558  0423                     i1l2113:	
  3559                           
  3560                           ;Source/Usb.c: 651:         Interfaces[0].Output.Stat = 0x80;
  3561  0423  3080               	movlw	128
  3562  0424  00F8               	movwf	??_SetupStage
  3563  0425  0878               	movf	??_SetupStage,w
  3564  0426  00A0               	movwf	32	;volatile
  3565  0427                     i1l2115:	
  3566                           
  3567                           ;Source/Usb.c: 654:         Interfaces[0].Input.ADDR = ((unsigned int)(((unsigned long)&
      +                          ControlTransferBuffer) & 0xFFFF));
  3568  0427  3049               	movlw	low _ControlTransferBuffer
  3569  0428  00A6               	movwf	38	;volatile
  3570  0429  3000               	movlw	high _ControlTransferBuffer
  3571  042A  00A7               	movwf	39	;volatile
  3572  042B                     i1l2117:	
  3573                           
  3574                           ;Source/Usb.c: 656:         Interfaces[0].Input.Stat = 0x80 | 0x40 | 0x08;
  3575  042B  30C8               	movlw	200
  3576  042C  00F8               	movwf	??_SetupStage
  3577  042D  0878               	movf	??_SetupStage,w
  3578  042E  00A4               	movwf	36	;volatile
  3579                           
  3580                           ;Source/Usb.c: 657:     }
  3581  042F  2C41               	goto	i1l2129
  3582  0430                     i1l343:	
  3583                           ;Source/Usb.c: 658:     else
  3584                           
  3585                           
  3586                           ;Source/Usb.c: 659:     {;Source/Usb.c: 661:         CtrlTransferStage = 0x01;
  3587  0430  01BA               	clrf	_CtrlTransferStage
  3588  0431  0ABA               	incf	_CtrlTransferStage,f
  3589  0432                     i1l2119:	
  3590                           
  3591                           ;Source/Usb.c: 664:         Interfaces[0].Input.Cnt = 0;
  3592  0432  01A5               	clrf	37	;volatile
  3593  0433                     i1l2121:	
  3594                           
  3595                           ;Source/Usb.c: 665:         Interfaces[0].Input.Stat = 0x80 | 0x40 | 0x08;
  3596  0433  30C8               	movlw	200
  3597  0434  00F8               	movwf	??_SetupStage
  3598  0435  0878               	movf	??_SetupStage,w
  3599  0436  00A4               	movwf	36	;volatile
  3600  0437                     i1l2123:	
  3601                           
  3602                           ;Source/Usb.c: 668:         Interfaces[0].Output.Cnt = 0x08;
  3603  0437  3008               	movlw	8
  3604  0438  00A1               	movwf	33	;volatile
  3605  0439                     i1l2125:	
  3606                           
  3607                           ;Source/Usb.c: 669:         Interfaces[0].Output.ADDR = ((unsigned int)(((unsigned long)
      +                          &ControlTransferBuffer) & 0xFFFF));
  3608  0439  3049               	movlw	low _ControlTransferBuffer
  3609  043A  00A2               	movwf	34	;volatile
  3610  043B  3000               	movlw	high _ControlTransferBuffer
  3611  043C  00A3               	movwf	35	;volatile
  3612  043D                     i1l2127:	
  3613                           
  3614                           ;Source/Usb.c: 671:         Interfaces[0].Output.Stat = 0x80 | 0x40 | 0x08;
  3615  043D  30C8               	movlw	200
  3616  043E  00F8               	movwf	??_SetupStage
  3617  043F  0878               	movf	??_SetupStage,w
  3618  0440  00A0               	movwf	32	;volatile
  3619  0441                     i1l2129:	
  3620                           
  3621                           ;Source/Usb.c: 675:     UCONbits.PKTDIS = 0;
  3622  0441  003D               	movlb	29	; select bank29
  3623  0442  120E               	bcf	14,4	;volatile
  3624  0443                     i1l346:	
  3625  0443  0008               	return
  3626  0444                     __end_of_SetupStage:	
  3627                           
  3628                           	psect	text23
  3629  00C9                     __ptext23:	
  3630 ;; *************** function _ProcessStandardRequest *****************
  3631 ;; Defined at:
  3632 ;;		line 475 in file "Source/Usb.c"
  3633 ;; Parameters:    Size  Location     Type
  3634 ;;		None
  3635 ;; Auto vars:     Size  Location     Type
  3636 ;;  request         1    7[COMMON] unsigned char 
  3637 ;; Return value:  Size  Location     Type
  3638 ;;                  1    wreg      void 
  3639 ;; Registers used:
  3640 ;;		wreg, fsr0l, fsr0h, fsr1l, fsr1h, status,2, status,0, pclath, cstack
  3641 ;; Tracked objects:
  3642 ;;		On entry : 0/0
  3643 ;;		On exit  : 0/0
  3644 ;;		Unchanged: 0/0
  3645 ;; Data sizes:     COMMON   BANK0   BANK1   BANK2   BANK3   BANK4   BANK5   BANK6   BANK7   BANK8   BANK9  BANK10  BANK1
      +1  BANK12
  3646 ;;      Params:         0       0       0       0       0       0       0       0       0       0       0       0       
      +0       0
  3647 ;;      Locals:         1       0       0       0       0       0       0       0       0       0       0       0       
      +0       0
  3648 ;;      Temps:          1       0       0       0       0       0       0       0       0       0       0       0       
      +0       0
  3649 ;;      Totals:         2       0       0       0       0       0       0       0       0       0       0       0       
      +0       0
  3650 ;;Total ram usage:        2 bytes
  3651 ;; Hardware stack levels used:    1
  3652 ;; Hardware stack levels required when called:    1
  3653 ;; This function calls:
  3654 ;;		_GetDescriptor
  3655 ;;		_GetStatus
  3656 ;;		_HIDInitEndpoints
  3657 ;;		_SetFeature
  3658 ;; This function is called by:
  3659 ;;		_SetupStage
  3660 ;; This function uses a non-reentrant model
  3661 ;;
  3662                           
  3663                           
  3664                           ;psect for function _ProcessStandardRequest
  3665  00C9                     _ProcessStandardRequest:	
  3666  00C9                     i1l1927:	
  3667                           ;incstack = 0
  3668                           ; Regs used in _ProcessStandardRequest: [wreg-fsr1h+status,2+status,0+pclath+cstack]
  3669                           
  3670                           
  3671                           ;Source/Usb.c: 477:     uint8_t request = SetupPacket.bRequest;
  3672  00C9  0020               	movlb	0	; select bank0
  3673  00CA  0841               	movf	_SetupPacket+1,w	;volatile
  3674  00CB  00F6               	movwf	??_ProcessStandardRequest
  3675  00CC  0876               	movf	??_ProcessStandardRequest,w
  3676  00CD  00F7               	movwf	ProcessStandardRequest@request
  3677  00CE                     i1l1929:	
  3678                           
  3679                           ;Source/Usb.c: 479:     if((SetupPacket.bmRequestType & 0x60) != 0x00)
  3680  00CE  0840               	movf	_SetupPacket,w	;volatile
  3681  00CF  3960               	andlw	96
  3682  00D0  1903               	btfsc	3,2
  3683  00D1  28D3               	goto	u180_21
  3684  00D2  28D4               	goto	u180_20
  3685  00D3                     u180_21:	
  3686  00D3  28D5               	goto	i1l1933
  3687  00D4                     u180_20:	
  3688  00D4  295B               	goto	i1l295
  3689  00D5                     i1l1933:	
  3690                           
  3691                           ;Source/Usb.c: 484:     if (request == 0x05)
  3692  00D5  3005               	movlw	5
  3693  00D6  0677               	xorwf	ProcessStandardRequest@request,w
  3694  00D7  1D03               	btfss	3,2
  3695  00D8  28DA               	goto	u181_21
  3696  00D9  28DB               	goto	u181_20
  3697  00DA                     u181_21:	
  3698  00DA  28E6               	goto	i1l1939
  3699  00DB                     u181_20:	
  3700  00DB                     i1l1935:	
  3701                           
  3702                           ;Source/Usb.c: 485:     {;Source/Usb.c: 490:             RequestHandled = 1;
  3703  00DB  01B8               	clrf	_RequestHandled
  3704  00DC  0AB8               	incf	_RequestHandled,f
  3705  00DD                     i1l1937:	
  3706                           
  3707                           ;Source/Usb.c: 491:             DeviceState = 0x04;
  3708  00DD  3004               	movlw	4
  3709  00DE  00F6               	movwf	??_ProcessStandardRequest
  3710  00DF  0876               	movf	??_ProcessStandardRequest,w
  3711  00E0  00BF               	movwf	_DeviceState
  3712                           
  3713                           ;Source/Usb.c: 492:             DeviceAddress = SetupPacket.wValue0;
  3714  00E1  0842               	movf	_SetupPacket+2,w	;volatile
  3715  00E2  00F6               	movwf	??_ProcessStandardRequest
  3716  00E3  0876               	movf	??_ProcessStandardRequest,w
  3717  00E4  00BC               	movwf	_DeviceAddress
  3718                           
  3719                           ;Source/Usb.c: 493:     }
  3720  00E5  295B               	goto	i1l295
  3721  00E6                     i1l1939:	
  3722  00E6  3006               	movlw	6
  3723  00E7  0677               	xorwf	ProcessStandardRequest@request,w
  3724  00E8  1D03               	btfss	3,2
  3725  00E9  28EB               	goto	u182_21
  3726  00EA  28EC               	goto	u182_20
  3727  00EB                     u182_21:	
  3728  00EB  28F0               	goto	i1l1943
  3729  00EC                     u182_20:	
  3730  00EC                     i1l1941:	
  3731                           
  3732                           ;Source/Usb.c: 495:     {;Source/Usb.c: 496:             GetDescriptor();
  3733  00EC  3184  24A9  3180   	fcall	_GetDescriptor
  3734                           
  3735                           ;Source/Usb.c: 497:     }
  3736  00EF  295B               	goto	i1l295
  3737  00F0                     i1l1943:	
  3738  00F0  3009               	movlw	9
  3739  00F1  0677               	xorwf	ProcessStandardRequest@request,w
  3740  00F2  1D03               	btfss	3,2
  3741  00F3  28F5               	goto	u183_21
  3742  00F4  28F6               	goto	u183_20
  3743  00F5                     u183_21:	
  3744  00F5  290E               	goto	i1l1957
  3745  00F6                     u183_20:	
  3746  00F6                     i1l1945:	
  3747                           
  3748                           ;Source/Usb.c: 499:     {;Source/Usb.c: 500:             RequestHandled = 1;
  3749  00F6  01B8               	clrf	_RequestHandled
  3750  00F7  0AB8               	incf	_RequestHandled,f
  3751  00F8                     i1l1947:	
  3752                           
  3753                           ;Source/Usb.c: 501:             CurrentConfiguration = SetupPacket.wValue0;
  3754  00F8  0842               	movf	_SetupPacket+2,w	;volatile
  3755  00F9  00F6               	movwf	??_ProcessStandardRequest
  3756  00FA  0876               	movf	??_ProcessStandardRequest,w
  3757  00FB  00D9               	movwf	_CurrentConfiguration
  3758  00FC                     i1l1949:	
  3759                           
  3760                           ;Source/Usb.c: 504:             if (CurrentConfiguration == 0)
  3761  00FC  0859               	movf	_CurrentConfiguration,w
  3762  00FD  1D03               	btfss	3,2
  3763  00FE  2900               	goto	u184_21
  3764  00FF  2901               	goto	u184_20
  3765  0100                     u184_21:	
  3766  0100  2906               	goto	i1l1953
  3767  0101                     u184_20:	
  3768  0101                     i1l1951:	
  3769                           
  3770                           ;Source/Usb.c: 507:                 DeviceState = 0x04;
  3771  0101  3004               	movlw	4
  3772  0102  00F6               	movwf	??_ProcessStandardRequest
  3773  0103  0876               	movf	??_ProcessStandardRequest,w
  3774  0104  00BF               	movwf	_DeviceState
  3775  0105  295B               	goto	i1l295
  3776  0106                     i1l1953:	
  3777                           
  3778                           ;Source/Usb.c: 509:             {;Source/Usb.c: 511:                 DeviceState = 0x05;
  3779  0106  3005               	movlw	5
  3780  0107  00F6               	movwf	??_ProcessStandardRequest
  3781  0108  0876               	movf	??_ProcessStandardRequest,w
  3782  0109  00BF               	movwf	_DeviceState
  3783  010A                     i1l1955:	
  3784                           
  3785                           ;Source/Usb.c: 514:                 HIDInitEndpoints();
  3786  010A  3181  21EE  3180   	fcall	_HIDInitEndpoints
  3787  010D  295B               	goto	i1l295
  3788  010E                     i1l1957:	
  3789  010E  3008               	movlw	8
  3790  010F  0677               	xorwf	ProcessStandardRequest@request,w
  3791  0110  1D03               	btfss	3,2
  3792  0111  2913               	goto	u185_21
  3793  0112  2914               	goto	u185_20
  3794  0113                     u185_21:	
  3795  0113  2920               	goto	i1l1965
  3796  0114                     u185_20:	
  3797  0114                     i1l1959:	
  3798                           
  3799                           ;Source/Usb.c: 521:     {;Source/Usb.c: 522:             RequestHandled = 1;
  3800  0114  01B8               	clrf	_RequestHandled
  3801  0115  0AB8               	incf	_RequestHandled,f
  3802  0116                     i1l1961:	
  3803                           
  3804                           ;Source/Usb.c: 523:             outPtr = (uint8_t*)&CurrentConfiguration;
  3805  0116  3059               	movlw	(low (_CurrentConfiguration| 0))& (0+255)
  3806  0117  00F6               	movwf	??_ProcessStandardRequest
  3807  0118  0876               	movf	??_ProcessStandardRequest,w
  3808  0119  00B6               	movwf	_outPtr
  3809                           
  3810                           ;Source/Usb.c: 524:             wCount = 1;
  3811  011A  3001               	movlw	1
  3812  011B  00B0               	movwf	_wCount
  3813  011C  3000               	movlw	0
  3814  011D  00B1               	movwf	_wCount+1
  3815  011E                     i1l1963:	
  3816                           
  3817                           ;Source/Usb.c: 525:    transferType=0;
  3818  011E  01B5               	clrf	_transferType
  3819                           
  3820                           ;Source/Usb.c: 526:     }
  3821  011F  295B               	goto	i1l295
  3822  0120                     i1l1965:	
  3823  0120  0877               	movf	ProcessStandardRequest@request,w
  3824  0121  1D03               	btfss	3,2
  3825  0122  2924               	goto	u186_21
  3826  0123  2925               	goto	u186_20
  3827  0124                     u186_21:	
  3828  0124  2929               	goto	i1l1969
  3829  0125                     u186_20:	
  3830  0125                     i1l1967:	
  3831                           
  3832                           ;Source/Usb.c: 528:     {;Source/Usb.c: 529:             GetStatus();
  3833  0125  3184  2444  3180   	fcall	_GetStatus
  3834                           
  3835                           ;Source/Usb.c: 530:     }
  3836  0128  295B               	goto	i1l295
  3837  0129                     i1l1969:	
  3838  0129  0377               	decf	ProcessStandardRequest@request,w
  3839  012A  1903               	btfsc	3,2
  3840  012B  292D               	goto	u187_21
  3841  012C  292E               	goto	u187_20
  3842  012D                     u187_21:	
  3843  012D  2934               	goto	i1l1973
  3844  012E                     u187_20:	
  3845  012E                     i1l1971:	
  3846  012E  3003               	movlw	3
  3847  012F  0677               	xorwf	ProcessStandardRequest@request,w
  3848  0130  1D03               	btfss	3,2
  3849  0131  2933               	goto	u188_21
  3850  0132  2934               	goto	u188_20
  3851  0133                     u188_21:	
  3852  0133  2938               	goto	i1l1975
  3853  0134                     u188_20:	
  3854  0134                     i1l1973:	
  3855                           
  3856                           ;Source/Usb.c: 533:     {;Source/Usb.c: 534:             SetFeature();
  3857  0134  3182  22F9  3180   	fcall	_SetFeature
  3858                           
  3859                           ;Source/Usb.c: 535:     }
  3860  0137  295B               	goto	i1l295
  3861  0138                     i1l1975:	
  3862  0138  300A               	movlw	10
  3863  0139  0677               	xorwf	ProcessStandardRequest@request,w
  3864  013A  1D03               	btfss	3,2
  3865  013B  293D               	goto	u189_21
  3866  013C  293E               	goto	u189_20
  3867  013D                     u189_21:	
  3868  013D  294B               	goto	i1l1985
  3869  013E                     u189_20:	
  3870  013E                     i1l1977:	
  3871                           
  3872                           ;Source/Usb.c: 537:     {;Source/Usb.c: 540:             RequestHandled = 1;
  3873  013E  01B8               	clrf	_RequestHandled
  3874  013F  0AB8               	incf	_RequestHandled,f
  3875  0140                     i1l1979:	
  3876                           
  3877                           ;Source/Usb.c: 541:             ControlTransferBuffer[0] = 0;
  3878  0140  01C9               	clrf	_ControlTransferBuffer	;volatile
  3879  0141                     i1l1981:	
  3880                           
  3881                           ;Source/Usb.c: 542:             outPtr = (uint8_t*)&ControlTransferBuffer;
  3882  0141  3049               	movlw	(low (_ControlTransferBuffer| 0))& (0+255)
  3883  0142  00F6               	movwf	??_ProcessStandardRequest
  3884  0143  0876               	movf	??_ProcessStandardRequest,w
  3885  0144  00B6               	movwf	_outPtr
  3886  0145                     i1l1983:	
  3887                           
  3888                           ;Source/Usb.c: 543:             wCount = 1;
  3889  0145  3001               	movlw	1
  3890  0146  00B0               	movwf	_wCount
  3891  0147  3000               	movlw	0
  3892  0148  00B1               	movwf	_wCount+1
  3893                           
  3894                           ;Source/Usb.c: 544:    transferType=0;
  3895  0149  01B5               	clrf	_transferType
  3896                           
  3897                           ;Source/Usb.c: 545:     }
  3898  014A  295B               	goto	i1l295
  3899  014B                     i1l1985:	
  3900  014B  300B               	movlw	11
  3901  014C  0677               	xorwf	ProcessStandardRequest@request,w
  3902  014D  1D03               	btfss	3,2
  3903  014E  2950               	goto	u190_21
  3904  014F  2951               	goto	u190_20
  3905  0150                     u190_21:	
  3906  0150  2954               	goto	i1l1989
  3907  0151                     u190_20:	
  3908  0151                     i1l1987:	
  3909                           
  3910                           ;Source/Usb.c: 547:     {;Source/Usb.c: 549:             RequestHandled = 1;
  3911  0151  01B8               	clrf	_RequestHandled
  3912  0152  0AB8               	incf	_RequestHandled,f
  3913                           
  3914                           ;Source/Usb.c: 550:     }
  3915  0153  295B               	goto	i1l295
  3916  0154                     i1l1989:	
  3917  0154  3007               	movlw	7
  3918  0155  0677               	xorwf	ProcessStandardRequest@request,w
  3919  0156  1D03               	btfss	3,2
  3920  0157  2959               	goto	u191_21
  3921  0158  295A               	goto	u191_20
  3922  0159                     u191_21:	
  3923  0159  295B               	goto	i1l1993
  3924  015A                     u191_20:	
  3925  015A  295B               	goto	i1l295
  3926  015B                     i1l1993:	
  3927  015B                     i1l295:	
  3928  015B  0008               	return
  3929  015C                     __end_of_ProcessStandardRequest:	
  3930                           
  3931                           	psect	text24
  3932  02F9                     __ptext24:	
  3933 ;; *************** function _SetFeature *****************
  3934 ;; Defined at:
  3935 ;;		line 429 in file "Source/Usb.c"
  3936 ;; Parameters:    Size  Location     Type
  3937 ;;		None
  3938 ;; Auto vars:     Size  Location     Type
  3939 ;;  endpointDir     1    5[COMMON] unsigned char 
  3940 ;;  endpointNum     1    4[COMMON] unsigned char 
  3941 ;;  feature         1    3[COMMON] unsigned char 
  3942 ;;  recipient       1    2[COMMON] unsigned char 
  3943 ;; Return value:  Size  Location     Type
  3944 ;;                  1    wreg      void 
  3945 ;; Registers used:
  3946 ;;		wreg, fsr1l, fsr1h, status,2, status,0
  3947 ;; Tracked objects:
  3948 ;;		On entry : 0/0
  3949 ;;		On exit  : 0/0
  3950 ;;		Unchanged: 0/0
  3951 ;; Data sizes:     COMMON   BANK0   BANK1   BANK2   BANK3   BANK4   BANK5   BANK6   BANK7   BANK8   BANK9  BANK10  BANK1
      +1  BANK12
  3952 ;;      Params:         0       0       0       0       0       0       0       0       0       0       0       0       
      +0       0
  3953 ;;      Locals:         4       0       0       0       0       0       0       0       0       0       0       0       
      +0       0
  3954 ;;      Temps:          2       0       0       0       0       0       0       0       0       0       0       0       
      +0       0
  3955 ;;      Totals:         6       0       0       0       0       0       0       0       0       0       0       0       
      +0       0
  3956 ;;Total ram usage:        6 bytes
  3957 ;; Hardware stack levels used:    1
  3958 ;; This function calls:
  3959 ;;		Nothing
  3960 ;; This function is called by:
  3961 ;;		_ProcessStandardRequest
  3962 ;; This function uses a non-reentrant model
  3963 ;;
  3964                           
  3965                           
  3966                           ;psect for function _SetFeature
  3967  02F9                     _SetFeature:	
  3968  02F9                     i1l1819:	
  3969                           ;incstack = 0
  3970                           ; Regs used in _SetFeature: [wreg+fsr1l+fsr1h+status,2+status,0]
  3971                           
  3972                           
  3973                           ;Source/Usb.c: 431:     uint8_t recipient = SetupPacket.bmRequestType & 0x1F;
  3974  02F9  0020               	movlb	0	; select bank0
  3975  02FA  0840               	movf	_SetupPacket,w	;volatile
  3976  02FB  391F               	andlw	31
  3977  02FC  00F0               	movwf	??_SetFeature
  3978  02FD  0870               	movf	??_SetFeature,w
  3979  02FE  00F2               	movwf	SetFeature@recipient
  3980  02FF                     i1l1821:	
  3981                           
  3982                           ;Source/Usb.c: 432:     uint8_t feature = SetupPacket.wValue0;
  3983  02FF  0842               	movf	_SetupPacket+2,w	;volatile
  3984  0300  00F0               	movwf	??_SetFeature
  3985  0301  0870               	movf	??_SetFeature,w
  3986  0302  00F3               	movwf	SetFeature@feature
  3987  0303                     i1l1823:	
  3988                           
  3989                           ;Source/Usb.c: 434:     if (recipient == 0x00)
  3990  0303  0872               	movf	SetFeature@recipient,w
  3991  0304  1D03               	btfss	3,2
  3992  0305  2B07               	goto	u158_21
  3993  0306  2B08               	goto	u158_20
  3994  0307                     u158_21:	
  3995  0307  2B1A               	goto	i1l1835
  3996  0308                     u158_20:	
  3997  0308                     i1l1825:	
  3998                           
  3999                           ;Source/Usb.c: 435:     {;Source/Usb.c: 437:         if (feature == 0x01)
  4000  0308  0373               	decf	SetFeature@feature,w
  4001  0309  1D03               	btfss	3,2
  4002  030A  2B0C               	goto	u159_21
  4003  030B  2B0D               	goto	u159_20
  4004  030C                     u159_21:	
  4005  030C  2B6A               	goto	i1l291
  4006  030D                     u159_20:	
  4007  030D                     i1l1827:	
  4008                           
  4009                           ;Source/Usb.c: 438:         {;Source/Usb.c: 439:             RequestHandled = 1;
  4010  030D  01B8               	clrf	_RequestHandled
  4011  030E  0AB8               	incf	_RequestHandled,f
  4012  030F                     i1l1829:	
  4013                           
  4014                           ;Source/Usb.c: 440:             if (SetupPacket.bRequest == 0x03)
  4015  030F  3003               	movlw	3
  4016  0310  0641               	xorwf	_SetupPacket+1,w	;volatile
  4017  0311  1D03               	btfss	3,2
  4018  0312  2B14               	goto	u160_21
  4019  0313  2B15               	goto	u160_20
  4020  0314                     u160_21:	
  4021  0314  2B18               	goto	i1l1833
  4022  0315                     u160_20:	
  4023  0315                     i1l1831:	
  4024                           
  4025                           ;Source/Usb.c: 441:                 RemoteWakeup = 1;
  4026  0315  01BD               	clrf	_RemoteWakeup
  4027  0316  0ABD               	incf	_RemoteWakeup,f
  4028  0317  2B6A               	goto	i1l291
  4029  0318                     i1l1833:	
  4030                           
  4031                           ;Source/Usb.c: 443:                 RemoteWakeup = 0;
  4032  0318  01BD               	clrf	_RemoteWakeup
  4033  0319  2B6A               	goto	i1l291
  4034  031A                     i1l1835:	
  4035  031A  3002               	movlw	2
  4036  031B  0672               	xorwf	SetFeature@recipient,w
  4037  031C  1D03               	btfss	3,2
  4038  031D  2B1F               	goto	u161_21
  4039  031E  2B20               	goto	u161_20
  4040  031F                     u161_21:	
  4041  031F  2B6A               	goto	i1l291
  4042  0320                     u161_20:	
  4043  0320                     i1l1837:	
  4044                           
  4045                           ;Source/Usb.c: 448:     {;Source/Usb.c: 450:         uint8_t endpointNum = SetupPacket.w
      +                          Index0 & 0x0F;
  4046  0320  0844               	movf	_SetupPacket+4,w	;volatile
  4047  0321  390F               	andlw	15
  4048  0322  00F0               	movwf	??_SetFeature
  4049  0323  0870               	movf	??_SetFeature,w
  4050  0324  00F4               	movwf	SetFeature@endpointNum
  4051                           
  4052                           ;Source/Usb.c: 451:         uint8_t endpointDir = SetupPacket.wIndex0 & 0x80;
  4053  0325  0844               	movf	_SetupPacket+4,w	;volatile
  4054  0326  3980               	andlw	128
  4055  0327  00F0               	movwf	??_SetFeature
  4056  0328  0870               	movf	??_SetFeature,w
  4057  0329  00F5               	movwf	SetFeature@endpointDir
  4058  032A                     i1l1839:	
  4059                           
  4060                           ;Source/Usb.c: 452:         if ((feature == 0x00) && (endpointNum != 0))
  4061  032A  0873               	movf	SetFeature@feature,w
  4062  032B  1D03               	btfss	3,2
  4063  032C  2B2E               	goto	u162_21
  4064  032D  2B2F               	goto	u162_20
  4065  032E                     u162_21:	
  4066  032E  2B6A               	goto	i1l291
  4067  032F                     u162_20:	
  4068  032F                     i1l1841:	
  4069  032F  0874               	movf	SetFeature@endpointNum,w
  4070  0330  1903               	btfsc	3,2
  4071  0331  2B33               	goto	u163_21
  4072  0332  2B34               	goto	u163_20
  4073  0333                     u163_21:	
  4074  0333  2B6A               	goto	i1l291
  4075  0334                     u163_20:	
  4076  0334                     i1l1843:	
  4077                           
  4078                           ;Source/Usb.c: 453:         {;Source/Usb.c: 455:             RequestHandled = 1;
  4079  0334  01B8               	clrf	_RequestHandled
  4080  0335  0AB8               	incf	_RequestHandled,f
  4081  0336                     i1l1845:	
  4082                           
  4083                           ;Source/Usb.c: 458:             inPtr = (uint8_t *)&Interfaces[0].Output + (endpointNum 
      +                          * 8);
  4084  0336  0874               	movf	SetFeature@endpointNum,w
  4085  0337  00F0               	movwf	??_SetFeature
  4086  0338  3002               	movlw	2
  4087  0339                     u164_25:	
  4088  0339  35F0               	lslf	??_SetFeature,f
  4089  033A  3EFF               	addlw	-1
  4090  033B  1D03               	skipz
  4091  033C  2B39               	goto	u164_25
  4092  033D  3570               	lslf	??_SetFeature,w
  4093  033E  3E20               	addlw	32
  4094  033F  00F1               	movwf	??_SetFeature+1
  4095  0340  0871               	movf	??_SetFeature+1,w
  4096  0341  00FD               	movwf	_inPtr
  4097                           
  4098                           ;Source/Usb.c: 459:             if (endpointDir)
  4099  0342  0875               	movf	SetFeature@endpointDir,w
  4100  0343  1903               	btfsc	3,2
  4101  0344  2B46               	goto	u165_21
  4102  0345  2B47               	goto	u165_20
  4103  0346                     u165_21:	
  4104  0346  2B4B               	goto	i1l286
  4105  0347                     u165_20:	
  4106  0347                     i1l1847:	
  4107                           
  4108                           ;Source/Usb.c: 460:                 inPtr += 4;
  4109  0347  3004               	movlw	4
  4110  0348  00F0               	movwf	??_SetFeature
  4111  0349  0870               	movf	??_SetFeature,w
  4112  034A  07FD               	addwf	_inPtr,f
  4113  034B                     i1l286:	
  4114                           
  4115                           ;Source/Usb.c: 462:             if(SetupPacket.bRequest == 0x03)
  4116  034B  3003               	movlw	3
  4117  034C  0641               	xorwf	_SetupPacket+1,w	;volatile
  4118  034D  1D03               	btfss	3,2
  4119  034E  2B50               	goto	u166_21
  4120  034F  2B51               	goto	u166_20
  4121  0350                     u166_21:	
  4122  0350  2B59               	goto	i1l1851
  4123  0351                     u166_20:	
  4124  0351                     i1l1849:	
  4125                           
  4126                           ;Source/Usb.c: 463:                 *inPtr = 0x84;
  4127  0351  3084               	movlw	132
  4128  0352  00F0               	movwf	??_SetFeature
  4129  0353  087D               	movf	_inPtr,w
  4130  0354  0086               	movwf	6
  4131  0355  0187               	clrf	7
  4132  0356  0870               	movf	??_SetFeature,w
  4133  0357  0081               	movwf	1
  4134  0358  2B6A               	goto	i1l291
  4135  0359                     i1l1851:	
  4136                           
  4137                           ;Source/Usb.c: 465:             {;Source/Usb.c: 466:                 if(endpointDir == 1
      +                          )
  4138  0359  0375               	decf	SetFeature@endpointDir,w
  4139  035A  1D03               	btfss	3,2
  4140  035B  2B5D               	goto	u167_21
  4141  035C  2B5E               	goto	u167_20
  4142  035D                     u167_21:	
  4143  035D  2B63               	goto	i1l1855
  4144  035E                     u167_20:	
  4145  035E                     i1l1853:	
  4146                           
  4147                           ;Source/Usb.c: 467:                     *inPtr = 0x00;
  4148  035E  087D               	movf	_inPtr,w
  4149  035F  0086               	movwf	6
  4150  0360  0187               	clrf	7
  4151  0361  0181               	clrf	1
  4152  0362  2B6A               	goto	i1l291
  4153  0363                     i1l1855:	
  4154                           
  4155                           ;Source/Usb.c: 469:                     *inPtr = 0x88;
  4156  0363  3088               	movlw	136
  4157  0364  00F0               	movwf	??_SetFeature
  4158  0365  087D               	movf	_inPtr,w
  4159  0366  0086               	movwf	6
  4160  0367  0187               	clrf	7
  4161  0368  0870               	movf	??_SetFeature,w
  4162  0369  0081               	movwf	1
  4163  036A                     i1l291:	
  4164  036A  0008               	return
  4165  036B                     __end_of_SetFeature:	
  4166                           
  4167                           	psect	text25
  4168  01EE                     __ptext25:	
  4169 ;; *************** function _HIDInitEndpoints *****************
  4170 ;; Defined at:
  4171 ;;		line 233 in file "Source/Usb.c"
  4172 ;; Parameters:    Size  Location     Type
  4173 ;;		None
  4174 ;; Auto vars:     Size  Location     Type
  4175 ;;  i               1    4[COMMON] unsigned char 
  4176 ;; Return value:  Size  Location     Type
  4177 ;;                  1    wreg      void 
  4178 ;; Registers used:
  4179 ;;		wreg, fsr1l, fsr1h, status,2, status,0
  4180 ;; Tracked objects:
  4181 ;;		On entry : 0/0
  4182 ;;		On exit  : 0/0
  4183 ;;		Unchanged: 0/0
  4184 ;; Data sizes:     COMMON   BANK0   BANK1   BANK2   BANK3   BANK4   BANK5   BANK6   BANK7   BANK8   BANK9  BANK10  BANK1
      +1  BANK12
  4185 ;;      Params:         0       0       0       0       0       0       0       0       0       0       0       0       
      +0       0
  4186 ;;      Locals:         1       0       0       0       0       0       0       0       0       0       0       0       
      +0       0
  4187 ;;      Temps:          4       0       0       0       0       0       0       0       0       0       0       0       
      +0       0
  4188 ;;      Totals:         5       0       0       0       0       0       0       0       0       0       0       0       
      +0       0
  4189 ;;Total ram usage:        5 bytes
  4190 ;; Hardware stack levels used:    1
  4191 ;; This function calls:
  4192 ;;		Nothing
  4193 ;; This function is called by:
  4194 ;;		_ProcessStandardRequest
  4195 ;; This function uses a non-reentrant model
  4196 ;;
  4197                           
  4198                           
  4199                           ;psect for function _HIDInitEndpoints
  4200  01EE                     _HIDInitEndpoints:	
  4201  01EE                     i1l1729:	
  4202                           ;incstack = 0
  4203                           ; Regs used in _HIDInitEndpoints: [wreg+fsr1l+fsr1h+status,2+status,0]
  4204                           
  4205                           
  4206                           ;Source/Usb.c: 235:     uint8_t i = 0;
  4207  01EE  01F4               	clrf	HIDInitEndpoints@i
  4208                           
  4209                           ;Source/Usb.c: 237:     HidRxLen =0;
  4210  01EF  0020               	movlb	0	; select bank0
  4211  01F0  01B7               	clrf	_HidRxLen
  4212                           
  4213                           ;Source/Usb.c: 239:     for (i = 0 ; i < 0x01; i++)
  4214  01F1  01F4               	clrf	HIDInitEndpoints@i
  4215  01F2                     i1l1735:	
  4216                           
  4217                           ;Source/Usb.c: 240:     {;Source/Usb.c: 242:         EndpointFlags[i] = 0x1E;
  4218  01F2  301E               	movlw	30
  4219  01F3  00F0               	movwf	??_HIDInitEndpoints
  4220  01F4  0874               	movf	HIDInitEndpoints@i,w
  4221  01F5  3E99               	addlw	153
  4222  01F6  0086               	movwf	6
  4223  01F7  300E               	movlw	14	; select bank29/30
  4224  01F8  0087               	movwf	7
  4225  01F9  0870               	movf	??_HIDInitEndpoints,w
  4226  01FA  0081               	movwf	1
  4227                           
  4228                           ;Source/Usb.c: 244:         Interfaces[i + 1].Output.Cnt = Buffers[(i * 2) + 1].Size;
  4229  01FB  0874               	movf	HIDInitEndpoints@i,w
  4230  01FC  00F0               	movwf	??_HIDInitEndpoints
  4231  01FD  3001               	movlw	1
  4232  01FE                     u135_25:	
  4233  01FE  35F0               	lslf	??_HIDInitEndpoints,f
  4234  01FF  3EFF               	addlw	-1
  4235  0200  1D03               	skipz
  4236  0201  29FE               	goto	u135_25
  4237  0202  3570               	lslf	??_HIDInitEndpoints,w
  4238  0203  3E63               	addlw	(low ((_Buffers| 0+2)))& (0+255)
  4239  0204  0086               	movwf	6
  4240  0205  0187               	clrf	7
  4241  0206  0801               	movf	1,w
  4242  0207  00F1               	movwf	??_HIDInitEndpoints+1
  4243  0208  0874               	movf	HIDInitEndpoints@i,w
  4244  0209  00F2               	movwf	??_HIDInitEndpoints+2
  4245  020A  3002               	movlw	2
  4246  020B                     u136_25:	
  4247  020B  35F2               	lslf	??_HIDInitEndpoints+2,f
  4248  020C  3EFF               	addlw	-1
  4249  020D  1D03               	skipz
  4250  020E  2A0B               	goto	u136_25
  4251  020F  3572               	lslf	??_HIDInitEndpoints+2,w
  4252  0210  3E29               	addlw	41
  4253  0211  0086               	movwf	6
  4254  0212  0187               	clrf	7
  4255  0213  0871               	movf	??_HIDInitEndpoints+1,w
  4256  0214  0081               	movwf	1
  4257                           
  4258                           ;Source/Usb.c: 247:         Interfaces[i + 1].Output.ADDR = ((unsigned int)(((unsigned l
      +                          ong)Buffers[(i * 2) + 1].Buffer) & 0xFFFF));
  4259  0215  0874               	movf	HIDInitEndpoints@i,w
  4260  0216  00F0               	movwf	??_HIDInitEndpoints
  4261  0217  3001               	movlw	1
  4262  0218                     u137_25:	
  4263  0218  35F0               	lslf	??_HIDInitEndpoints,f
  4264  0219  3EFF               	addlw	-1
  4265  021A  1D03               	skipz
  4266  021B  2A18               	goto	u137_25
  4267  021C  3570               	lslf	??_HIDInitEndpoints,w
  4268  021D  3E64               	addlw	(low ((_Buffers| 0+3)))& (0+255)
  4269  021E  0086               	movwf	6
  4270  021F  0187               	clrf	7
  4271  0220  0801               	movf	1,w
  4272  0221  00F1               	movwf	??_HIDInitEndpoints+1
  4273  0222  3000               	movlw	0
  4274  0223  00F2               	movwf	??_HIDInitEndpoints+2
  4275  0224  0874               	movf	HIDInitEndpoints@i,w
  4276  0225  00F3               	movwf	??_HIDInitEndpoints+3
  4277  0226  3002               	movlw	2
  4278  0227                     u138_25:	
  4279  0227  35F3               	lslf	??_HIDInitEndpoints+3,f
  4280  0228  3EFF               	addlw	-1
  4281  0229  1D03               	skipz
  4282  022A  2A27               	goto	u138_25
  4283  022B  3573               	lslf	??_HIDInitEndpoints+3,w
  4284  022C  3E2A               	addlw	42
  4285  022D  0086               	movwf	6
  4286  022E  0187               	clrf	7
  4287  022F  0871               	movf	??_HIDInitEndpoints+1,w
  4288  0230  3FC0               	movwi [0]fsr1
  4289  0231  0872               	movf	??_HIDInitEndpoints+2,w
  4290  0232  3FC1               	movwi [1]fsr1
  4291                           
  4292                           ;Source/Usb.c: 249:         Interfaces[i + 1].Output.Stat = 0x80 | 0x08;
  4293  0233  3088               	movlw	136
  4294  0234  00F0               	movwf	??_HIDInitEndpoints
  4295  0235  0874               	movf	HIDInitEndpoints@i,w
  4296  0236  00F1               	movwf	??_HIDInitEndpoints+1
  4297  0237  3002               	movlw	2
  4298  0238                     u139_25:	
  4299  0238  35F1               	lslf	??_HIDInitEndpoints+1,f
  4300  0239  3EFF               	addlw	-1
  4301  023A  1D03               	skipz
  4302  023B  2A38               	goto	u139_25
  4303  023C  3571               	lslf	??_HIDInitEndpoints+1,w
  4304  023D  3E28               	addlw	40
  4305  023E  0086               	movwf	6
  4306  023F  0187               	clrf	7
  4307  0240  0870               	movf	??_HIDInitEndpoints,w
  4308  0241  0081               	movwf	1
  4309                           
  4310                           ;Source/Usb.c: 252:         Interfaces[i + 1].Input.ADDR = ((unsigned int)(((unsigned lo
      +                          ng)Buffers[(i * 2)].Buffer) & 0xFFFF));
  4311  0242  0874               	movf	HIDInitEndpoints@i,w
  4312  0243  00F0               	movwf	??_HIDInitEndpoints
  4313  0244  3001               	movlw	1
  4314  0245                     u140_25:	
  4315  0245  35F0               	lslf	??_HIDInitEndpoints,f
  4316  0246  3EFF               	addlw	-1
  4317  0247  1D03               	skipz
  4318  0248  2A45               	goto	u140_25
  4319  0249  3570               	lslf	??_HIDInitEndpoints,w
  4320  024A  3E62               	addlw	(low ((_Buffers| 0+1)))& (0+255)
  4321  024B  0086               	movwf	6
  4322  024C  0187               	clrf	7
  4323  024D  0801               	movf	1,w
  4324  024E  00F1               	movwf	??_HIDInitEndpoints+1
  4325  024F  3000               	movlw	0
  4326  0250  00F2               	movwf	??_HIDInitEndpoints+2
  4327  0251  0874               	movf	HIDInitEndpoints@i,w
  4328  0252  00F3               	movwf	??_HIDInitEndpoints+3
  4329  0253  3002               	movlw	2
  4330  0254                     u141_25:	
  4331  0254  35F3               	lslf	??_HIDInitEndpoints+3,f
  4332  0255  3EFF               	addlw	-1
  4333  0256  1D03               	skipz
  4334  0257  2A54               	goto	u141_25
  4335  0258  3573               	lslf	??_HIDInitEndpoints+3,w
  4336  0259  3E2E               	addlw	46
  4337  025A  0086               	movwf	6
  4338  025B  0187               	clrf	7
  4339  025C  0871               	movf	??_HIDInitEndpoints+1,w
  4340  025D  3FC0               	movwi [0]fsr1
  4341  025E  0872               	movf	??_HIDInitEndpoints+2,w
  4342  025F  3FC1               	movwi [1]fsr1
  4343                           
  4344                           ;Source/Usb.c: 253:         Interfaces[i + 1].Input.Stat = 0x40;
  4345  0260  3040               	movlw	64
  4346  0261  00F0               	movwf	??_HIDInitEndpoints
  4347  0262  0874               	movf	HIDInitEndpoints@i,w
  4348  0263  00F1               	movwf	??_HIDInitEndpoints+1
  4349  0264  3002               	movlw	2
  4350  0265                     u142_25:	
  4351  0265  35F1               	lslf	??_HIDInitEndpoints+1,f
  4352  0266  3EFF               	addlw	-1
  4353  0267  1D03               	skipz
  4354  0268  2A65               	goto	u142_25
  4355  0269  3571               	lslf	??_HIDInitEndpoints+1,w
  4356  026A  3E2C               	addlw	44
  4357  026B  0086               	movwf	6
  4358  026C  0187               	clrf	7
  4359  026D  0870               	movf	??_HIDInitEndpoints,w
  4360  026E  0081               	movwf	1
  4361  026F                     i1l1737:	
  4362                           
  4363                           ;Source/Usb.c: 254:     }
  4364  026F  3001               	movlw	1
  4365  0270  00F0               	movwf	??_HIDInitEndpoints
  4366  0271  0870               	movf	??_HIDInitEndpoints,w
  4367  0272  07F4               	addwf	HIDInitEndpoints@i,f
  4368  0273                     i1l1739:	
  4369  0273  0874               	movf	HIDInitEndpoints@i,w
  4370  0274  1903               	btfsc	3,2
  4371  0275  2A77               	goto	u143_21
  4372  0276  2A78               	goto	u143_20
  4373  0277                     u143_21:	
  4374  0277  29F2               	goto	i1l1735
  4375  0278                     u143_20:	
  4376  0278                     i1l225:	
  4377  0278  0008               	return
  4378  0279                     __end_of_HIDInitEndpoints:	
  4379                           
  4380                           	psect	text26
  4381  0444                     __ptext26:	
  4382 ;; *************** function _GetStatus *****************
  4383 ;; Defined at:
  4384 ;;		line 382 in file "Source/Usb.c"
  4385 ;; Parameters:    Size  Location     Type
  4386 ;;		None
  4387 ;; Auto vars:     Size  Location     Type
  4388 ;;  endpointDir     1    3[COMMON] unsigned char 
  4389 ;;  endpointNum     1    2[COMMON] unsigned char 
  4390 ;;  recipient       1    4[COMMON] unsigned char 
  4391 ;; Return value:  Size  Location     Type
  4392 ;;                  1    wreg      void 
  4393 ;; Registers used:
  4394 ;;		wreg, fsr1l, fsr1h, status,2, status,0
  4395 ;; Tracked objects:
  4396 ;;		On entry : 0/0
  4397 ;;		On exit  : 0/0
  4398 ;;		Unchanged: 0/0
  4399 ;; Data sizes:     COMMON   BANK0   BANK1   BANK2   BANK3   BANK4   BANK5   BANK6   BANK7   BANK8   BANK9  BANK10  BANK1
      +1  BANK12
  4400 ;;      Params:         0       0       0       0       0       0       0       0       0       0       0       0       
      +0       0
  4401 ;;      Locals:         3       0       0       0       0       0       0       0       0       0       0       0       
      +0       0
  4402 ;;      Temps:          2       0       0       0       0       0       0       0       0       0       0       0       
      +0       0
  4403 ;;      Totals:         5       0       0       0       0       0       0       0       0       0       0       0       
      +0       0
  4404 ;;Total ram usage:        5 bytes
  4405 ;; Hardware stack levels used:    1
  4406 ;; This function calls:
  4407 ;;		Nothing
  4408 ;; This function is called by:
  4409 ;;		_ProcessStandardRequest
  4410 ;; This function uses a non-reentrant model
  4411 ;;
  4412                           
  4413                           
  4414                           ;psect for function _GetStatus
  4415  0444                     _GetStatus:	
  4416  0444                     i1l1775:	
  4417                           ;incstack = 0
  4418                           ; Regs used in _GetStatus: [wreg+fsr1l+fsr1h+status,2+status,0]
  4419                           
  4420                           
  4421                           ;Source/Usb.c: 385:     uint8_t recipient = SetupPacket.bmRequestType & 0x1F;
  4422  0444  0020               	movlb	0	; select bank0
  4423  0445  0840               	movf	_SetupPacket,w	;volatile
  4424  0446  391F               	andlw	31
  4425  0447  00F0               	movwf	??_GetStatus
  4426  0448  0870               	movf	??_GetStatus,w
  4427  0449  00F4               	movwf	GetStatus@recipient
  4428  044A                     i1l1777:	
  4429                           
  4430                           ;Source/Usb.c: 386:     ControlTransferBuffer[0] = 0;
  4431  044A  01C9               	clrf	_ControlTransferBuffer	;volatile
  4432  044B                     i1l1779:	
  4433                           
  4434                           ;Source/Usb.c: 387:     ControlTransferBuffer[1] = 0;
  4435  044B  01CA               	clrf	_ControlTransferBuffer+1	;volatile
  4436  044C                     i1l1781:	
  4437                           
  4438                           ;Source/Usb.c: 390:     if (recipient == 0x00)
  4439  044C  0874               	movf	GetStatus@recipient,w
  4440  044D  1D03               	btfss	3,2
  4441  044E  2C50               	goto	u149_21
  4442  044F  2C51               	goto	u149_20
  4443  0450                     u149_21:	
  4444  0450  2C60               	goto	i1l1793
  4445  0451                     u149_20:	
  4446  0451                     i1l1783:	
  4447                           
  4448                           ;Source/Usb.c: 391:     {;Source/Usb.c: 393:         RequestHandled = 1;
  4449  0451  01B8               	clrf	_RequestHandled
  4450  0452  0AB8               	incf	_RequestHandled,f
  4451  0453                     i1l1785:	
  4452                           
  4453                           ;Source/Usb.c: 395:         if (SelfPowered)
  4454  0453  083B               	movf	_SelfPowered,w
  4455  0454  1903               	btfsc	3,2
  4456  0455  2C57               	goto	u150_21
  4457  0456  2C58               	goto	u150_20
  4458  0457                     u150_21:	
  4459  0457  2C59               	goto	i1l1789
  4460  0458                     u150_20:	
  4461  0458                     i1l1787:	
  4462                           
  4463                           ;Source/Usb.c: 396:             ControlTransferBuffer[0] |= 0x01;
  4464  0458  1449               	bsf	_ControlTransferBuffer,0	;volatile
  4465  0459                     i1l1789:	
  4466                           
  4467                           ;Source/Usb.c: 397:         if (RemoteWakeup)
  4468  0459  083D               	movf	_RemoteWakeup,w
  4469  045A  1903               	btfsc	3,2
  4470  045B  2C5D               	goto	u151_21
  4471  045C  2C5E               	goto	u151_20
  4472  045D                     u151_21:	
  4473  045D  2C9A               	goto	i1l1813
  4474  045E                     u151_20:	
  4475  045E                     i1l1791:	
  4476                           
  4477                           ;Source/Usb.c: 398:             ControlTransferBuffer[0] |= 0x02;
  4478  045E  14C9               	bsf	_ControlTransferBuffer,1	;volatile
  4479  045F  2C9A               	goto	i1l1813
  4480  0460                     i1l1793:	
  4481  0460  0374               	decf	GetStatus@recipient,w
  4482  0461  1D03               	btfss	3,2
  4483  0462  2C64               	goto	u152_21
  4484  0463  2C65               	goto	u152_20
  4485  0464                     u152_21:	
  4486  0464  2C68               	goto	i1l1797
  4487  0465                     u152_20:	
  4488  0465                     i1l1795:	
  4489                           
  4490                           ;Source/Usb.c: 401:     {;Source/Usb.c: 403:         RequestHandled = 1;
  4491  0465  01B8               	clrf	_RequestHandled
  4492  0466  0AB8               	incf	_RequestHandled,f
  4493                           
  4494                           ;Source/Usb.c: 404:     }
  4495  0467  2C9A               	goto	i1l1813
  4496  0468                     i1l1797:	
  4497  0468  3002               	movlw	2
  4498  0469  0674               	xorwf	GetStatus@recipient,w
  4499  046A  1D03               	btfss	3,2
  4500  046B  2C6D               	goto	u153_21
  4501  046C  2C6E               	goto	u153_20
  4502  046D                     u153_21:	
  4503  046D  2C9A               	goto	i1l1813
  4504  046E                     u153_20:	
  4505  046E                     i1l1799:	
  4506                           
  4507                           ;Source/Usb.c: 406:     {;Source/Usb.c: 408:         uint8_t endpointNum = SetupPacket.w
      +                          Index0 & 0x0F;
  4508  046E  0844               	movf	_SetupPacket+4,w	;volatile
  4509  046F  390F               	andlw	15
  4510  0470  00F0               	movwf	??_GetStatus
  4511  0471  0870               	movf	??_GetStatus,w
  4512  0472  00F2               	movwf	GetStatus@endpointNum
  4513                           
  4514                           ;Source/Usb.c: 409:         uint8_t endpointDir = SetupPacket.wIndex0 & 0x80;
  4515  0473  0844               	movf	_SetupPacket+4,w	;volatile
  4516  0474  3980               	andlw	128
  4517  0475  00F0               	movwf	??_GetStatus
  4518  0476  0870               	movf	??_GetStatus,w
  4519  0477  00F3               	movwf	GetStatus@endpointDir
  4520  0478                     i1l1801:	
  4521                           
  4522                           ;Source/Usb.c: 410:         RequestHandled = 1;
  4523  0478  01B8               	clrf	_RequestHandled
  4524  0479  0AB8               	incf	_RequestHandled,f
  4525  047A                     i1l1803:	
  4526                           
  4527                           ;Source/Usb.c: 413:         inPtr = (uint8_t *)&Interfaces[0].Output + (endpointNum * 8)
      +                          ;
  4528  047A  0872               	movf	GetStatus@endpointNum,w
  4529  047B  00F0               	movwf	??_GetStatus
  4530  047C  3002               	movlw	2
  4531  047D                     u154_25:	
  4532  047D  35F0               	lslf	??_GetStatus,f
  4533  047E  3EFF               	addlw	-1
  4534  047F  1D03               	skipz
  4535  0480  2C7D               	goto	u154_25
  4536  0481  3570               	lslf	??_GetStatus,w
  4537  0482  3E20               	addlw	32
  4538  0483  00F1               	movwf	??_GetStatus+1
  4539  0484  0871               	movf	??_GetStatus+1,w
  4540  0485  00FD               	movwf	_inPtr
  4541  0486                     i1l1805:	
  4542                           
  4543                           ;Source/Usb.c: 414:         if (endpointDir)
  4544  0486  0873               	movf	GetStatus@endpointDir,w
  4545  0487  1903               	btfsc	3,2
  4546  0488  2C8A               	goto	u155_21
  4547  0489  2C8B               	goto	u155_20
  4548  048A                     u155_21:	
  4549  048A  2C8F               	goto	i1l1809
  4550  048B                     u155_20:	
  4551  048B                     i1l1807:	
  4552                           
  4553                           ;Source/Usb.c: 415:             inPtr += 4;
  4554  048B  3004               	movlw	4
  4555  048C  00F0               	movwf	??_GetStatus
  4556  048D  0870               	movf	??_GetStatus,w
  4557  048E  07FD               	addwf	_inPtr,f
  4558  048F                     i1l1809:	
  4559                           
  4560                           ;Source/Usb.c: 416:         if(*inPtr & 0x04)
  4561  048F  087D               	movf	_inPtr,w
  4562  0490  0086               	movwf	6
  4563  0491  0187               	clrf	7
  4564  0492  1D01               	btfss	1,2
  4565  0493  2C95               	goto	u156_21
  4566  0494  2C96               	goto	u156_20
  4567  0495                     u156_21:	
  4568  0495  2C9A               	goto	i1l1813
  4569  0496                     u156_20:	
  4570  0496                     i1l1811:	
  4571                           
  4572                           ;Source/Usb.c: 417:             ControlTransferBuffer[0] = 0x01;
  4573  0496  3001               	movlw	1
  4574  0497  00F0               	movwf	??_GetStatus
  4575  0498  0870               	movf	??_GetStatus,w
  4576  0499  00C9               	movwf	_ControlTransferBuffer	;volatile
  4577  049A                     i1l1813:	
  4578                           
  4579                           ;Source/Usb.c: 420:     if (RequestHandled)
  4580  049A  0838               	movf	_RequestHandled,w
  4581  049B  1903               	btfsc	3,2
  4582  049C  2C9E               	goto	u157_21
  4583  049D  2C9F               	goto	u157_20
  4584  049E                     u157_21:	
  4585  049E  2CA8               	goto	i1l276
  4586  049F                     u157_20:	
  4587  049F                     i1l1815:	
  4588                           
  4589                           ;Source/Usb.c: 421:     {;Source/Usb.c: 422:         outPtr = (uint8_t *)&ControlTransfe
      +                          rBuffer;
  4590  049F  3049               	movlw	(low (_ControlTransferBuffer| 0))& (0+255)
  4591  04A0  00F0               	movwf	??_GetStatus
  4592  04A1  0870               	movf	??_GetStatus,w
  4593  04A2  00B6               	movwf	_outPtr
  4594                           
  4595                           ;Source/Usb.c: 423:         wCount = 2;
  4596  04A3  3002               	movlw	2
  4597  04A4  00B0               	movwf	_wCount
  4598  04A5  3000               	movlw	0
  4599  04A6  00B1               	movwf	_wCount+1
  4600  04A7                     i1l1817:	
  4601                           
  4602                           ;Source/Usb.c: 424:   transferType=0;
  4603  04A7  01B5               	clrf	_transferType
  4604  04A8                     i1l276:	
  4605  04A8  0008               	return
  4606  04A9                     __end_of_GetStatus:	
  4607                           
  4608                           	psect	text27
  4609  04A9                     __ptext27:	
  4610 ;; *************** function _GetDescriptor *****************
  4611 ;; Defined at:
  4612 ;;		line 343 in file "Source/Usb.c"
  4613 ;; Parameters:    Size  Location     Type
  4614 ;;		None
  4615 ;; Auto vars:     Size  Location     Type
  4616 ;;  descriptorTy    1    4[COMMON] unsigned char 
  4617 ;;  descriptorIn    1    3[COMMON] unsigned char 
  4618 ;; Return value:  Size  Location     Type
  4619 ;;                  1    wreg      void 
  4620 ;; Registers used:
  4621 ;;		wreg, fsr0l, fsr0h, status,2, status,0, pclath
  4622 ;; Tracked objects:
  4623 ;;		On entry : 0/0
  4624 ;;		On exit  : 0/0
  4625 ;;		Unchanged: 0/0
  4626 ;; Data sizes:     COMMON   BANK0   BANK1   BANK2   BANK3   BANK4   BANK5   BANK6   BANK7   BANK8   BANK9  BANK10  BANK1
      +1  BANK12
  4627 ;;      Params:         0       0       0       0       0       0       0       0       0       0       0       0       
      +0       0
  4628 ;;      Locals:         2       0       0       0       0       0       0       0       0       0       0       0       
      +0       0
  4629 ;;      Temps:          3       0       0       0       0       0       0       0       0       0       0       0       
      +0       0
  4630 ;;      Totals:         5       0       0       0       0       0       0       0       0       0       0       0       
      +0       0
  4631 ;;Total ram usage:        5 bytes
  4632 ;; Hardware stack levels used:    1
  4633 ;; This function calls:
  4634 ;;		Nothing
  4635 ;; This function is called by:
  4636 ;;		_ProcessStandardRequest
  4637 ;; This function uses a non-reentrant model
  4638 ;;
  4639                           
  4640                           
  4641                           ;psect for function _GetDescriptor
  4642  04A9                     _GetDescriptor:	
  4643  04A9                     i1l1741:	
  4644                           ;incstack = 0
  4645                           ; Regs used in _GetDescriptor: [wreg-fsr0h+status,2+status,0+pclath]
  4646                           
  4647                           
  4648                           ;Source/Usb.c: 345:     if(SetupPacket.bmRequestType == 0x80)
  4649  04A9  3080               	movlw	128
  4650  04AA  0020               	movlb	0	; select bank0
  4651  04AB  0640               	xorwf	_SetupPacket,w	;volatile
  4652  04AC  1D03               	btfss	3,2
  4653  04AD  2CAF               	goto	u144_21
  4654  04AE  2CB0               	goto	u144_20
  4655  04AF                     u144_21:	
  4656  04AF  2D09               	goto	i1l263
  4657  04B0                     u144_20:	
  4658  04B0                     i1l1743:	
  4659                           
  4660                           ;Source/Usb.c: 346:     {;Source/Usb.c: 347:         uint8_t descriptorType = SetupPacke
      +                          t.wValue1;
  4661  04B0  0843               	movf	_SetupPacket+3,w	;volatile
  4662  04B1  00F0               	movwf	??_GetDescriptor
  4663  04B2  0870               	movf	??_GetDescriptor,w
  4664  04B3  00F4               	movwf	GetDescriptor@descriptorType
  4665                           
  4666                           ;Source/Usb.c: 348:         uint8_t descriptorIndex = SetupPacket.wValue0;
  4667  04B4  0842               	movf	_SetupPacket+2,w	;volatile
  4668  04B5  00F0               	movwf	??_GetDescriptor
  4669  04B6  0870               	movf	??_GetDescriptor,w
  4670  04B7  00F3               	movwf	GetDescriptor@descriptorIndex
  4671  04B8                     i1l1745:	
  4672                           
  4673                           ;Source/Usb.c: 350:         if (descriptorType == 0x01)
  4674  04B8  0374               	decf	GetDescriptor@descriptorType,w
  4675  04B9  1D03               	btfss	3,2
  4676  04BA  2CBC               	goto	u145_21
  4677  04BB  2CBD               	goto	u145_20
  4678  04BC                     u145_21:	
  4679  04BC  2CCA               	goto	i1l1753
  4680  04BD                     u145_20:	
  4681  04BD                     i1l1747:	
  4682                           
  4683                           ;Source/Usb.c: 351:         {;Source/Usb.c: 352:                 RequestHandled = 1;
  4684  04BD  01B8               	clrf	_RequestHandled
  4685  04BE  0AB8               	incf	_RequestHandled,f
  4686  04BF                     i1l1749:	
  4687                           
  4688                           ;Source/Usb.c: 353:                 ROMoutPtr = (const uint8_t *) & DeviceDescriptor;
  4689  04BF  307F               	movlw	low (_DeviceDescriptor| (0+32768))
  4690  04C0  00B2               	movwf	_ROMoutPtr
  4691  04C1  3087               	movlw	high (_DeviceDescriptor| (0+32768))
  4692  04C2  00B3               	movwf	_ROMoutPtr+1
  4693                           
  4694                           ;Source/Usb.c: 354:                 wCount = sizeof(DeviceDescriptor);
  4695  04C3  3012               	movlw	18
  4696  04C4  00B0               	movwf	_wCount
  4697  04C5  3000               	movlw	0
  4698  04C6  00B1               	movwf	_wCount+1
  4699  04C7                     i1l1751:	
  4700                           
  4701                           ;Source/Usb.c: 355:                 transferType=1;
  4702  04C7  01B5               	clrf	_transferType
  4703  04C8  0AB5               	incf	_transferType,f
  4704                           
  4705                           ;Source/Usb.c: 356:         }
  4706  04C9  2D09               	goto	i1l263
  4707  04CA                     i1l1753:	
  4708  04CA  3002               	movlw	2
  4709  04CB  0674               	xorwf	GetDescriptor@descriptorType,w
  4710  04CC  1D03               	btfss	3,2
  4711  04CD  2CCF               	goto	u146_21
  4712  04CE  2CD0               	goto	u146_20
  4713  04CF                     u146_21:	
  4714  04CF  2CDB               	goto	i1l1761
  4715  04D0                     u146_20:	
  4716  04D0                     i1l1755:	
  4717                           
  4718                           ;Source/Usb.c: 358:         {;Source/Usb.c: 359:                 RequestHandled = 1;
  4719  04D0  01B8               	clrf	_RequestHandled
  4720  04D1  0AB8               	incf	_RequestHandled,f
  4721  04D2                     i1l1757:	
  4722                           
  4723                           ;Source/Usb.c: 360:                 ROMoutPtr = (const uint8_t*)&ConfigurationDescriptor
      +                          ;
  4724  04D2  30F5               	movlw	low (_ConfigurationDescriptor| (0+32768))
  4725  04D3  00B2               	movwf	_ROMoutPtr
  4726  04D4  3086               	movlw	high (_ConfigurationDescriptor| (0+32768))
  4727  04D5  00B3               	movwf	_ROMoutPtr+1
  4728                           
  4729                           ;Source/Usb.c: 361:                 wCount = sizeof(ConfigurationDescriptor);
  4730  04D6  3022               	movlw	34
  4731  04D7  00B0               	movwf	_wCount
  4732  04D8  3000               	movlw	0
  4733  04D9  00B1               	movwf	_wCount+1
  4734  04DA  2CC7               	goto	i1l1751
  4735  04DB                     i1l1761:	
  4736  04DB  3003               	movlw	3
  4737  04DC  0674               	xorwf	GetDescriptor@descriptorType,w
  4738  04DD  1D03               	btfss	3,2
  4739  04DE  2CE0               	goto	u147_21
  4740  04DF  2CE1               	goto	u147_20
  4741  04E0                     u147_21:	
  4742  04E0  2D09               	goto	i1l256
  4743  04E1                     u147_20:	
  4744  04E1                     i1l1763:	
  4745                           
  4746                           ;Source/Usb.c: 365:         {;Source/Usb.c: 366:                 RequestHandled = 1;
  4747  04E1  01B8               	clrf	_RequestHandled
  4748  04E2  0AB8               	incf	_RequestHandled,f
  4749  04E3                     i1l1765:	
  4750                           
  4751                           ;Source/Usb.c: 367:                 if(descriptorIndex >= 0x03)
  4752  04E3  3003               	movlw	3
  4753  04E4  0273               	subwf	GetDescriptor@descriptorIndex,w
  4754  04E5  1C03               	skipc
  4755  04E6  2CE8               	goto	u148_21
  4756  04E7  2CE9               	goto	u148_20
  4757  04E8                     u148_21:	
  4758  04E8  2CEE               	goto	i1l1769
  4759  04E9                     u148_20:	
  4760  04E9                     i1l1767:	
  4761                           
  4762                           ;Source/Usb.c: 368:                     ROMoutPtr = (const uint8_t*)&StringDescriptor0;
  4763  04E9  3006               	movlw	low (_StringDescriptor0| (0+32768))
  4764  04EA  00B2               	movwf	_ROMoutPtr
  4765  04EB  3090               	movlw	high (_StringDescriptor0| (0+32768))
  4766  04EC  00B3               	movwf	_ROMoutPtr+1
  4767  04ED  2CFD               	goto	i1l1771
  4768  04EE                     i1l1769:	
  4769                           
  4770                           ;Source/Usb.c: 370:                     ROMoutPtr = *(StringDescriptorPointers + descrip
      +                          torIndex);
  4771  04EE  0873               	movf	GetDescriptor@descriptorIndex,w
  4772  04EF  00F0               	movwf	??_GetDescriptor
  4773  04F0  01F1               	clrf	??_GetDescriptor+1
  4774  04F1  35F0               	lslf	??_GetDescriptor,f
  4775  04F2  0DF1               	rlf	??_GetDescriptor+1,f
  4776  04F3  3000               	movlw	low (_StringDescriptorPointers| (0+32768))
  4777  04F4  0770               	addwf	??_GetDescriptor,w
  4778  04F5  0084               	movwf	4
  4779  04F6  3090               	movlw	high (_StringDescriptorPointers| (0+32768))
  4780  04F7  3D71               	addwfc	??_GetDescriptor+1,w
  4781  04F8  0085               	movwf	5
  4782  04F9  3F00               	moviw [0]fsr0
  4783  04FA  00B2               	movwf	_ROMoutPtr
  4784  04FB  3F01               	moviw [1]fsr0
  4785  04FC  00B3               	movwf	_ROMoutPtr+1
  4786  04FD                     i1l1771:	
  4787                           
  4788                           ;Source/Usb.c: 372:                 wCount = *ROMoutPtr;
  4789  04FD  0832               	movf	_ROMoutPtr,w
  4790  04FE  0084               	movwf	4
  4791  04FF  0833               	movf	_ROMoutPtr+1,w
  4792  0500  0085               	movwf	5
  4793  0501  0800               	movf	0,w	;code access
  4794  0502  00F0               	movwf	??_GetDescriptor
  4795  0503  01F1               	clrf	??_GetDescriptor+1
  4796  0504  0870               	movf	??_GetDescriptor,w
  4797  0505  00B0               	movwf	_wCount
  4798  0506  0871               	movf	??_GetDescriptor+1,w
  4799  0507  00B1               	movwf	_wCount+1
  4800  0508  2CC7               	goto	i1l1751
  4801  0509                     i1l256:	
  4802  0509                     i1l263:	
  4803  0509  0008               	return
  4804  050A                     __end_of_GetDescriptor:	
  4805                           
  4806                           	psect	text28
  4807  002F                     __ptext28:	
  4808 ;; *************** function _ProcessHIDRequest *****************
  4809 ;; Defined at:
  4810 ;;		line 258 in file "Source/Usb.c"
  4811 ;; Parameters:    Size  Location     Type
  4812 ;;		None
  4813 ;; Auto vars:     Size  Location     Type
  4814 ;;  descriptorTy    1    1[COMMON] unsigned char 
  4815 ;;  bRequest        1    2[COMMON] unsigned char 
  4816 ;; Return value:  Size  Location     Type
  4817 ;;                  1    wreg      void 
  4818 ;; Registers used:
  4819 ;;		wreg, status,2, status,0
  4820 ;; Tracked objects:
  4821 ;;		On entry : 0/0
  4822 ;;		On exit  : 0/0
  4823 ;;		Unchanged: 0/0
  4824 ;; Data sizes:     COMMON   BANK0   BANK1   BANK2   BANK3   BANK4   BANK5   BANK6   BANK7   BANK8   BANK9  BANK10  BANK1
      +1  BANK12
  4825 ;;      Params:         0       0       0       0       0       0       0       0       0       0       0       0       
      +0       0
  4826 ;;      Locals:         2       0       0       0       0       0       0       0       0       0       0       0       
      +0       0
  4827 ;;      Temps:          1       0       0       0       0       0       0       0       0       0       0       0       
      +0       0
  4828 ;;      Totals:         3       0       0       0       0       0       0       0       0       0       0       0       
      +0       0
  4829 ;;Total ram usage:        3 bytes
  4830 ;; Hardware stack levels used:    1
  4831 ;; This function calls:
  4832 ;;		Nothing
  4833 ;; This function is called by:
  4834 ;;		_SetupStage
  4835 ;; This function uses a non-reentrant model
  4836 ;;
  4837                           
  4838                           
  4839                           ;psect for function _ProcessHIDRequest
  4840  002F                     _ProcessHIDRequest:	
  4841  002F                     i1l1857:	
  4842                           ;incstack = 0
  4843                           ; Regs used in _ProcessHIDRequest: [wreg+status,2+status,0]
  4844                           
  4845                           
  4846                           ;Source/Usb.c: 260:     uint8_t bRequest;;Source/Usb.c: 263:     if((SetupPacket.bmReque
      +                          stType & 0x1F) != 0x01 || (SetupPacket.wIndex0 != 0x00)) return;
  4847  002F  301F               	movlw	31
  4848  0030  0020               	movlb	0	; select bank0
  4849  0031  0540               	andwf	_SetupPacket,w	;volatile
  4850  0032  00F0               	movwf	??_ProcessHIDRequest
  4851  0033  0370               	decf	??_ProcessHIDRequest,w
  4852  0034  1D03               	btfss	3,2
  4853  0035  2837               	goto	u168_21
  4854  0036  2838               	goto	u168_20
  4855  0037                     u168_21:	
  4856  0037  28C8               	goto	i1l231
  4857  0038                     u168_20:	
  4858  0038                     i1l1859:	
  4859  0038  0844               	movf	_SetupPacket+4,w	;volatile
  4860  0039  1903               	btfsc	3,2
  4861  003A  283C               	goto	u169_21
  4862  003B  283D               	goto	u169_20
  4863  003C                     u169_21:	
  4864  003C  283F               	goto	i1l1861
  4865  003D                     u169_20:	
  4866  003D  28C8               	goto	i1l231
  4867  003E                     i1l230:	
  4868  003E  28C8               	goto	i1l231
  4869  003F                     i1l1861:	
  4870                           
  4871                           ;Source/Usb.c: 265:     bRequest = SetupPacket.bRequest;
  4872  003F  0841               	movf	_SetupPacket+1,w	;volatile
  4873  0040  00F0               	movwf	??_ProcessHIDRequest
  4874  0041  0870               	movf	??_ProcessHIDRequest,w
  4875  0042  00F2               	movwf	ProcessHIDRequest@bRequest
  4876  0043                     i1l1863:	
  4877                           
  4878                           ;Source/Usb.c: 267:     if (bRequest == 0x06)
  4879  0043  3006               	movlw	6
  4880  0044  0672               	xorwf	ProcessHIDRequest@bRequest,w
  4881  0045  1D03               	btfss	3,2
  4882  0046  2848               	goto	u170_21
  4883  0047  2849               	goto	u170_20
  4884  0048                     u170_21:	
  4885  0048  2871               	goto	i1l1887
  4886  0049                     u170_20:	
  4887  0049                     i1l1865:	
  4888                           
  4889                           ;Source/Usb.c: 268:     {;Source/Usb.c: 270:         uint8_t descriptorType = SetupPacke
      +                          t.wValue1;
  4890  0049  0843               	movf	_SetupPacket+3,w	;volatile
  4891  004A  00F0               	movwf	??_ProcessHIDRequest
  4892  004B  0870               	movf	??_ProcessHIDRequest,w
  4893  004C  00F1               	movwf	ProcessHIDRequest@descriptorType
  4894  004D                     i1l1867:	
  4895                           
  4896                           ;Source/Usb.c: 271:         if (descriptorType == 0x21)
  4897  004D  3021               	movlw	33
  4898  004E  0671               	xorwf	ProcessHIDRequest@descriptorType,w
  4899  004F  1D03               	btfss	3,2
  4900  0050  2852               	goto	u171_21
  4901  0051  2853               	goto	u171_20
  4902  0052                     u171_21:	
  4903  0052  2860               	goto	i1l1875
  4904  0053                     u171_20:	
  4905  0053                     i1l1869:	
  4906                           
  4907                           ;Source/Usb.c: 272:         {;Source/Usb.c: 273:             RequestHandled = 1;
  4908  0053  01B8               	clrf	_RequestHandled
  4909  0054  0AB8               	incf	_RequestHandled,f
  4910  0055                     i1l1871:	
  4911                           
  4912                           ;Source/Usb.c: 274:             ROMoutPtr = (const uint8_t*)&ConfigurationDescriptor.HID
      +                          Descriptor;
  4913  0055  30FE               	movlw	low ((_ConfigurationDescriptor| (0+32768)+9))
  4914  0056  00B2               	movwf	_ROMoutPtr
  4915  0057  3086               	movlw	high ((_ConfigurationDescriptor| (0+32768)+9))
  4916  0058  00B3               	movwf	_ROMoutPtr+1
  4917                           
  4918                           ;Source/Usb.c: 275:             wCount = sizeof(ConfigurationDescriptor.HIDDescriptor);
  4919  0059  3019               	movlw	25
  4920  005A  00B0               	movwf	_wCount
  4921  005B  3000               	movlw	0
  4922  005C  00B1               	movwf	_wCount+1
  4923  005D                     i1l1873:	
  4924                           
  4925                           ;Source/Usb.c: 276:             transferType=1;
  4926  005D  01B5               	clrf	_transferType
  4927  005E  0AB5               	incf	_transferType,f
  4928                           
  4929                           ;Source/Usb.c: 277:         }
  4930  005F  2871               	goto	i1l1887
  4931  0060                     i1l1875:	
  4932  0060  3022               	movlw	34
  4933  0061  0671               	xorwf	ProcessHIDRequest@descriptorType,w
  4934  0062  1D03               	btfss	3,2
  4935  0063  2865               	goto	u172_21
  4936  0064  2866               	goto	u172_20
  4937  0065                     u172_21:	
  4938  0065  2871               	goto	i1l1883
  4939  0066                     u172_20:	
  4940  0066                     i1l1877:	
  4941                           
  4942                           ;Source/Usb.c: 279:         {;Source/Usb.c: 280:             RequestHandled = 1;
  4943  0066  01B8               	clrf	_RequestHandled
  4944  0067  0AB8               	incf	_RequestHandled,f
  4945  0068                     i1l1879:	
  4946                           
  4947                           ;Source/Usb.c: 281:             ROMoutPtr = (const uint8_t*)HIDReport;
  4948  0068  30A6               	movlw	low (_HIDReport| (0+32768))
  4949  0069  00B2               	movwf	_ROMoutPtr
  4950  006A  3086               	movlw	high (_HIDReport| (0+32768))
  4951  006B  00B3               	movwf	_ROMoutPtr+1
  4952                           
  4953                           ;Source/Usb.c: 282:             wCount = sizeof(HIDReport);
  4954  006C  302A               	movlw	42
  4955  006D  00B0               	movwf	_wCount
  4956  006E  3000               	movlw	0
  4957  006F  00B1               	movwf	_wCount+1
  4958  0070  285D               	goto	i1l1873
  4959  0071                     i1l1883:	
  4960  0071                     i1l1887:	
  4961                           
  4962                           ;Source/Usb.c: 293:     if ((SetupPacket.bmRequestType & 0x60) != 0x20)
  4963  0071  3060               	movlw	96
  4964  0072  0540               	andwf	_SetupPacket,w	;volatile
  4965  0073  00F0               	movwf	??_ProcessHIDRequest
  4966  0074  3020               	movlw	32
  4967  0075  0670               	xorwf	??_ProcessHIDRequest,w
  4968  0076  1903               	btfsc	3,2
  4969  0077  2879               	goto	u173_21
  4970  0078  287A               	goto	u173_20
  4971  0079                     u173_21:	
  4972  0079  287B               	goto	i1l1891
  4973  007A                     u173_20:	
  4974  007A  28C8               	goto	i1l231
  4975  007B                     i1l1891:	
  4976                           
  4977                           ;Source/Usb.c: 299:     if (bRequest == 0x01)
  4978  007B  0372               	decf	ProcessHIDRequest@bRequest,w
  4979  007C  1D03               	btfss	3,2
  4980  007D  287F               	goto	u174_21
  4981  007E  2880               	goto	u174_20
  4982  007F                     u174_21:	
  4983  007F  2881               	goto	i1l1895
  4984  0080                     u174_20:	
  4985  0080  28C8               	goto	i1l231
  4986  0081                     i1l1895:	
  4987  0081  3009               	movlw	9
  4988  0082  0672               	xorwf	ProcessHIDRequest@bRequest,w
  4989  0083  1D03               	btfss	3,2
  4990  0084  2886               	goto	u175_21
  4991  0085  2887               	goto	u175_20
  4992  0086                     u175_21:	
  4993  0086  288C               	goto	i1l1899
  4994  0087                     u175_20:	
  4995  0087                     i1l1897:	
  4996                           
  4997                           ;Source/Usb.c: 304:     {;Source/Usb.c: 305:         HIDPostProcess = 1;
  4998  0087  01B9               	clrf	_HIDPostProcess
  4999  0088  0AB9               	incf	_HIDPostProcess,f
  5000                           
  5001                           ;Source/Usb.c: 306:         RequestHandled = 1;
  5002  0089  01B8               	clrf	_RequestHandled
  5003  008A  0AB8               	incf	_RequestHandled,f
  5004                           
  5005                           ;Source/Usb.c: 307:     }
  5006  008B  28C8               	goto	i1l231
  5007  008C                     i1l1899:	
  5008  008C  3002               	movlw	2
  5009  008D  0672               	xorwf	ProcessHIDRequest@bRequest,w
  5010  008E  1D03               	btfss	3,2
  5011  008F  2891               	goto	u176_21
  5012  0090  2892               	goto	u176_20
  5013  0091                     u176_21:	
  5014  0091  289E               	goto	i1l1907
  5015  0092                     u176_20:	
  5016  0092                     i1l1901:	
  5017                           
  5018                           ;Source/Usb.c: 310:     {;Source/Usb.c: 311:         RequestHandled = 1;
  5019  0092  01B8               	clrf	_RequestHandled
  5020  0093  0AB8               	incf	_RequestHandled,f
  5021  0094                     i1l1903:	
  5022                           
  5023                           ;Source/Usb.c: 312:         outPtr = &HidIdleRate;
  5024  0094  3058               	movlw	(low (_HidIdleRate| 0))& (0+255)
  5025  0095  00F0               	movwf	??_ProcessHIDRequest
  5026  0096  0870               	movf	??_ProcessHIDRequest,w
  5027  0097  00B6               	movwf	_outPtr
  5028                           
  5029                           ;Source/Usb.c: 313:         wCount = 1;
  5030  0098  3001               	movlw	1
  5031  0099  00B0               	movwf	_wCount
  5032  009A  3000               	movlw	0
  5033  009B  00B1               	movwf	_wCount+1
  5034  009C                     i1l1905:	
  5035                           
  5036                           ;Source/Usb.c: 314:         transferType=0;
  5037  009C  01B5               	clrf	_transferType
  5038                           
  5039                           ;Source/Usb.c: 315:     }
  5040  009D  28C8               	goto	i1l231
  5041  009E                     i1l1907:	
  5042  009E  300A               	movlw	10
  5043  009F  0672               	xorwf	ProcessHIDRequest@bRequest,w
  5044  00A0  1D03               	btfss	3,2
  5045  00A1  28A3               	goto	u177_21
  5046  00A2  28A4               	goto	u177_20
  5047  00A3                     u177_21:	
  5048  00A3  28AB               	goto	i1l1913
  5049  00A4                     u177_20:	
  5050  00A4                     i1l1909:	
  5051                           
  5052                           ;Source/Usb.c: 318:     {;Source/Usb.c: 319:         RequestHandled = 1;
  5053  00A4  01B8               	clrf	_RequestHandled
  5054  00A5  0AB8               	incf	_RequestHandled,f
  5055  00A6                     i1l1911:	
  5056                           
  5057                           ;Source/Usb.c: 320:         HidIdleRate = SetupPacket.wValue1;
  5058  00A6  0843               	movf	_SetupPacket+3,w	;volatile
  5059  00A7  00F0               	movwf	??_ProcessHIDRequest
  5060  00A8  0870               	movf	??_ProcessHIDRequest,w
  5061  00A9  00D8               	movwf	_HidIdleRate
  5062                           
  5063                           ;Source/Usb.c: 321:     }
  5064  00AA  28C8               	goto	i1l231
  5065  00AB                     i1l1913:	
  5066  00AB  3003               	movlw	3
  5067  00AC  0672               	xorwf	ProcessHIDRequest@bRequest,w
  5068  00AD  1D03               	btfss	3,2
  5069  00AE  28B0               	goto	u178_21
  5070  00AF  28B1               	goto	u178_20
  5071  00B0                     u178_21:	
  5072  00B0  28BC               	goto	i1l1921
  5073  00B1                     u178_20:	
  5074  00B1                     i1l1915:	
  5075                           
  5076                           ;Source/Usb.c: 324:     {;Source/Usb.c: 325:         RequestHandled = 1;
  5077  00B1  01B8               	clrf	_RequestHandled
  5078  00B2  0AB8               	incf	_RequestHandled,f
  5079  00B3                     i1l1917:	
  5080                           
  5081                           ;Source/Usb.c: 326:         outPtr = &HidProtocol;
  5082  00B3  3057               	movlw	(low (_HidProtocol| 0))& (0+255)
  5083  00B4  00F0               	movwf	??_ProcessHIDRequest
  5084  00B5  0870               	movf	??_ProcessHIDRequest,w
  5085  00B6  00B6               	movwf	_outPtr
  5086                           
  5087                           ;Source/Usb.c: 327:         wCount = 1;
  5088  00B7  3001               	movlw	1
  5089  00B8  00B0               	movwf	_wCount
  5090  00B9  3000               	movlw	0
  5091  00BA  00B1               	movwf	_wCount+1
  5092  00BB  289C               	goto	i1l1905
  5093  00BC                     i1l1921:	
  5094  00BC  300B               	movlw	11
  5095  00BD  0672               	xorwf	ProcessHIDRequest@bRequest,w
  5096  00BE  1D03               	btfss	3,2
  5097  00BF  28C1               	goto	u179_21
  5098  00C0  28C2               	goto	u179_20
  5099  00C1                     u179_21:	
  5100  00C1  283E               	goto	i1l230
  5101  00C2                     u179_20:	
  5102  00C2                     i1l1923:	
  5103                           
  5104                           ;Source/Usb.c: 332:     {;Source/Usb.c: 333:         RequestHandled = 1;
  5105  00C2  01B8               	clrf	_RequestHandled
  5106  00C3  0AB8               	incf	_RequestHandled,f
  5107  00C4                     i1l1925:	
  5108                           
  5109                           ;Source/Usb.c: 334:         HidProtocol = SetupPacket.wValue0;
  5110  00C4  0842               	movf	_SetupPacket+2,w	;volatile
  5111  00C5  00F0               	movwf	??_ProcessHIDRequest
  5112  00C6  0870               	movf	??_ProcessHIDRequest,w
  5113  00C7  00D7               	movwf	_HidProtocol
  5114  00C8                     i1l231:	
  5115                           ;Source/Usb.c: 335:     }
  5116                           
  5117  00C8  0008               	return
  5118  00C9                     __end_of_ProcessHIDRequest:	
  5119                           
  5120                           	psect	text29
  5121  0279                     __ptext29:	
  5122 ;; *************** function _InDataStage *****************
  5123 ;; Defined at:
  5124 ;;		line 563 in file "Source/Usb.c"
  5125 ;; Parameters:    Size  Location     Type
  5126 ;;		None
  5127 ;; Auto vars:     Size  Location     Type
  5128 ;;  bufferSize      2    3[COMMON] unsigned short 
  5129 ;;  i               1    2[COMMON] unsigned char 
  5130 ;; Return value:  Size  Location     Type
  5131 ;;                  1    wreg      void 
  5132 ;; Registers used:
  5133 ;;		wreg, fsr0l, fsr0h, fsr1l, fsr1h, status,2, status,0, pclath
  5134 ;; Tracked objects:
  5135 ;;		On entry : 0/0
  5136 ;;		On exit  : 0/0
  5137 ;;		Unchanged: 0/0
  5138 ;; Data sizes:     COMMON   BANK0   BANK1   BANK2   BANK3   BANK4   BANK5   BANK6   BANK7   BANK8   BANK9  BANK10  BANK1
      +1  BANK12
  5139 ;;      Params:         0       0       0       0       0       0       0       0       0       0       0       0       
      +0       0
  5140 ;;      Locals:         3       0       0       0       0       0       0       0       0       0       0       0       
      +0       0
  5141 ;;      Temps:          2       0       0       0       0       0       0       0       0       0       0       0       
      +0       0
  5142 ;;      Totals:         5       0       0       0       0       0       0       0       0       0       0       0       
      +0       0
  5143 ;;Total ram usage:        5 bytes
  5144 ;; Hardware stack levels used:    1
  5145 ;; This function calls:
  5146 ;;		Nothing
  5147 ;; This function is called by:
  5148 ;;		_SetupStage
  5149 ;;		_ProcessControlTransfer
  5150 ;; This function uses a non-reentrant model
  5151 ;;
  5152                           
  5153                           
  5154                           ;psect for function _InDataStage
  5155  0279                     _InDataStage:	
  5156  0279                     i1l1997:	
  5157                           ;incstack = 0
  5158                           ; Regs used in _InDataStage: [wreg-fsr1h+status,2+status,0+pclath]
  5159                           
  5160                           
  5161                           ;Source/Usb.c: 565:     uint8_t i;;Source/Usb.c: 566:     uint16_t bufferSize;;Source/Us
      +                          b.c: 569:     if(wCount < 0x08)
  5162  0279  3000               	movlw	0
  5163  027A  0020               	movlb	0	; select bank0
  5164  027B  0231               	subwf	_wCount+1,w
  5165  027C  3008               	movlw	8
  5166  027D  1903               	skipnz
  5167  027E  0230               	subwf	_wCount,w
  5168  027F  1803               	skipnc
  5169  0280  2A82               	goto	u192_21
  5170  0281  2A83               	goto	u192_20
  5171  0282                     u192_21:	
  5172  0282  2A88               	goto	i1l2001
  5173  0283                     u192_20:	
  5174  0283                     i1l1999:	
  5175                           
  5176                           ;Source/Usb.c: 570:         bufferSize = wCount;
  5177  0283  0831               	movf	_wCount+1,w
  5178  0284  00F4               	movwf	InDataStage@bufferSize+1
  5179  0285  0830               	movf	_wCount,w
  5180  0286  00F3               	movwf	InDataStage@bufferSize
  5181  0287  2A8C               	goto	i1l2003
  5182  0288                     i1l2001:	
  5183                           
  5184                           ;Source/Usb.c: 572:         bufferSize = 0x08;
  5185  0288  3008               	movlw	8
  5186  0289  00F3               	movwf	InDataStage@bufferSize
  5187  028A  3000               	movlw	0
  5188  028B  00F4               	movwf	InDataStage@bufferSize+1
  5189  028C                     i1l2003:	
  5190                           
  5191                           ;Source/Usb.c: 575:     Interfaces[0].Input.Stat &= ~(0x01 | 0x02);
  5192  028C  30FC               	movlw	252
  5193  028D  00F0               	movwf	??_InDataStage
  5194  028E  0870               	movf	??_InDataStage,w
  5195  028F  05A4               	andwf	36,f	;volatile
  5196  0290                     i1l2005:	
  5197                           
  5198                           ;Source/Usb.c: 576:     Interfaces[0].Input.Stat |= (uint8_t)((bufferSize & 0x0300) >> 8
      +                          );
  5199  0290  0874               	movf	InDataStage@bufferSize+1,w
  5200  0291  3903               	andlw	3
  5201  0292  00F0               	movwf	??_InDataStage
  5202  0293  0870               	movf	??_InDataStage,w
  5203  0294  04A4               	iorwf	36,f	;volatile
  5204                           
  5205                           ;Source/Usb.c: 577:     Interfaces[0].Input.Cnt = (uint8_t)(bufferSize & 0xFF);
  5206  0295  0873               	movf	InDataStage@bufferSize,w
  5207  0296  00F0               	movwf	??_InDataStage
  5208  0297  0870               	movf	??_InDataStage,w
  5209  0298  00A5               	movwf	37	;volatile
  5210  0299                     i1l2007:	
  5211                           
  5212                           ;Source/Usb.c: 578:     Interfaces[0].Input.ADDR = ((unsigned int)(((unsigned long)&Cont
      +                          rolTransferBuffer) & 0xFFFF));
  5213  0299  3049               	movlw	low _ControlTransferBuffer
  5214  029A  00A6               	movwf	38	;volatile
  5215  029B  3000               	movlw	high _ControlTransferBuffer
  5216  029C  00A7               	movwf	39	;volatile
  5217  029D                     i1l2009:	
  5218                           
  5219                           ;Source/Usb.c: 583:     wCount = wCount - bufferSize;
  5220  029D  0873               	movf	InDataStage@bufferSize,w
  5221  029E  0230               	subwf	_wCount,w
  5222  029F  00B0               	movwf	_wCount
  5223  02A0  0874               	movf	InDataStage@bufferSize+1,w
  5224  02A1  3B31               	subwfb	_wCount+1,w
  5225  02A2  00B1               	movwf	_wCount+1
  5226                           
  5227                           ;Source/Usb.c: 586:     inPtr = (uint8_t *)&ControlTransferBuffer;
  5228  02A3  3049               	movlw	(low (_ControlTransferBuffer| 0))& (0+255)
  5229  02A4  00F0               	movwf	??_InDataStage
  5230  02A5  0870               	movf	??_InDataStage,w
  5231  02A6  00FD               	movwf	_inPtr
  5232  02A7                     i1l2011:	
  5233                           
  5234                           ;Source/Usb.c: 587:  if(transferType==1) for(i=0;i<bufferSize;i++) *inPtr++ = *ROMoutPtr
      +                          ++;
  5235  02A7  0335               	decf	_transferType,w
  5236  02A8  1D03               	btfss	3,2
  5237  02A9  2AAB               	goto	u193_21
  5238  02AA  2AAC               	goto	u193_20
  5239  02AB                     u193_21:	
  5240  02AB  2AD3               	goto	i1l2025
  5241  02AC                     u193_20:	
  5242  02AC                     i1l2013:	
  5243  02AC  01F2               	clrf	InDataStage@i
  5244  02AD  2AC5               	goto	i1l2023
  5245  02AE                     i1l2015:	
  5246  02AE  0832               	movf	_ROMoutPtr,w
  5247  02AF  0084               	movwf	4
  5248  02B0  0833               	movf	_ROMoutPtr+1,w
  5249  02B1  0085               	movwf	5
  5250  02B2  0800               	movf	0,w	;code access
  5251  02B3  00F0               	movwf	??_InDataStage
  5252  02B4  087D               	movf	_inPtr,w
  5253  02B5  0086               	movwf	6
  5254  02B6  0187               	clrf	7
  5255  02B7  0870               	movf	??_InDataStage,w
  5256  02B8  0081               	movwf	1
  5257  02B9                     i1l2017:	
  5258  02B9  3001               	movlw	1
  5259  02BA  07B2               	addwf	_ROMoutPtr,f
  5260  02BB  3000               	movlw	0
  5261  02BC  3DB3               	addwfc	_ROMoutPtr+1,f
  5262  02BD                     i1l2019:	
  5263  02BD  3001               	movlw	1
  5264  02BE  00F0               	movwf	??_InDataStage
  5265  02BF  0870               	movf	??_InDataStage,w
  5266  02C0  07FD               	addwf	_inPtr,f
  5267  02C1                     i1l2021:	
  5268  02C1  3001               	movlw	1
  5269  02C2  00F0               	movwf	??_InDataStage
  5270  02C3  0870               	movf	??_InDataStage,w
  5271  02C4  07F2               	addwf	InDataStage@i,f
  5272  02C5                     i1l2023:	
  5273  02C5  0872               	movf	InDataStage@i,w
  5274  02C6  00F0               	movwf	??_InDataStage
  5275  02C7  01F1               	clrf	??_InDataStage+1
  5276  02C8  0874               	movf	InDataStage@bufferSize+1,w
  5277  02C9  0271               	subwf	??_InDataStage+1,w
  5278  02CA  1D03               	skipz
  5279  02CB  2ACE               	goto	u194_25
  5280  02CC  0873               	movf	InDataStage@bufferSize,w
  5281  02CD  0270               	subwf	??_InDataStage,w
  5282  02CE                     u194_25:	
  5283  02CE  1C03               	skipc
  5284  02CF  2AD1               	goto	u194_21
  5285  02D0  2AD2               	goto	u194_20
  5286  02D1                     u194_21:	
  5287  02D1  2AAE               	goto	i1l2015
  5288  02D2                     u194_20:	
  5289  02D2  2AF8               	goto	i1l332
  5290  02D3                     i1l2025:	
  5291  02D3  01F2               	clrf	InDataStage@i
  5292  02D4  2AEB               	goto	i1l2035
  5293  02D5                     i1l2027:	
  5294  02D5  0836               	movf	_outPtr,w
  5295  02D6  0086               	movwf	6
  5296  02D7  0187               	clrf	7
  5297  02D8  0801               	movf	1,w
  5298  02D9  00F0               	movwf	??_InDataStage
  5299  02DA  087D               	movf	_inPtr,w
  5300  02DB  0086               	movwf	6
  5301  02DC  0187               	clrf	7
  5302  02DD  0870               	movf	??_InDataStage,w
  5303  02DE  0081               	movwf	1
  5304  02DF                     i1l2029:	
  5305  02DF  3001               	movlw	1
  5306  02E0  00F0               	movwf	??_InDataStage
  5307  02E1  0870               	movf	??_InDataStage,w
  5308  02E2  07B6               	addwf	_outPtr,f
  5309  02E3                     i1l2031:	
  5310  02E3  3001               	movlw	1
  5311  02E4  00F0               	movwf	??_InDataStage
  5312  02E5  0870               	movf	??_InDataStage,w
  5313  02E6  07FD               	addwf	_inPtr,f
  5314  02E7                     i1l2033:	
  5315  02E7  3001               	movlw	1
  5316  02E8  00F0               	movwf	??_InDataStage
  5317  02E9  0870               	movf	??_InDataStage,w
  5318  02EA  07F2               	addwf	InDataStage@i,f
  5319  02EB                     i1l2035:	
  5320  02EB  0872               	movf	InDataStage@i,w
  5321  02EC  00F0               	movwf	??_InDataStage
  5322  02ED  01F1               	clrf	??_InDataStage+1
  5323  02EE  0874               	movf	InDataStage@bufferSize+1,w
  5324  02EF  0271               	subwf	??_InDataStage+1,w
  5325  02F0  1D03               	skipz
  5326  02F1  2AF4               	goto	u195_25
  5327  02F2  0873               	movf	InDataStage@bufferSize,w
  5328  02F3  0270               	subwf	??_InDataStage,w
  5329  02F4                     u195_25:	
  5330  02F4  1C03               	skipc
  5331  02F5  2AF7               	goto	u195_21
  5332  02F6  2AF8               	goto	u195_20
  5333  02F7                     u195_21:	
  5334  02F7  2AD5               	goto	i1l2027
  5335  02F8                     u195_20:	
  5336  02F8                     i1l332:	
  5337  02F8  0008               	return
  5338  02F9                     __end_of_InDataStage:	
  5339                           
  5340                           	psect	text30
  5341  0645                     __ptext30:	
  5342 ;; *************** function _OutDataStage *****************
  5343 ;; Defined at:
  5344 ;;		line 592 in file "Source/Usb.c"
  5345 ;; Parameters:    Size  Location     Type
  5346 ;;		None
  5347 ;; Auto vars:     Size  Location     Type
  5348 ;;  bufferSize      2    3[COMMON] unsigned short 
  5349 ;;  i               2    1[COMMON] unsigned short 
  5350 ;; Return value:  Size  Location     Type
  5351 ;;                  1    wreg      void 
  5352 ;; Registers used:
  5353 ;;		wreg, fsr1l, fsr1h, status,2, status,0
  5354 ;; Tracked objects:
  5355 ;;		On entry : 0/0
  5356 ;;		On exit  : 0/0
  5357 ;;		Unchanged: 0/0
  5358 ;; Data sizes:     COMMON   BANK0   BANK1   BANK2   BANK3   BANK4   BANK5   BANK6   BANK7   BANK8   BANK9  BANK10  BANK1
      +1  BANK12
  5359 ;;      Params:         0       0       0       0       0       0       0       0       0       0       0       0       
      +0       0
  5360 ;;      Locals:         4       0       0       0       0       0       0       0       0       0       0       0       
      +0       0
  5361 ;;      Temps:          1       0       0       0       0       0       0       0       0       0       0       0       
      +0       0
  5362 ;;      Totals:         5       0       0       0       0       0       0       0       0       0       0       0       
      +0       0
  5363 ;;Total ram usage:        5 bytes
  5364 ;; Hardware stack levels used:    1
  5365 ;; This function calls:
  5366 ;;		Nothing
  5367 ;; This function is called by:
  5368 ;;		_ProcessControlTransfer
  5369 ;; This function uses a non-reentrant model
  5370 ;;
  5371                           
  5372                           
  5373                           ;psect for function _OutDataStage
  5374  0645                     _OutDataStage:	
  5375  0645                     i1l2061:	
  5376                           ;incstack = 0
  5377                           ; Regs used in _OutDataStage: [wreg+fsr1l+fsr1h+status,2+status,0]
  5378                           
  5379                           
  5380                           ;Source/Usb.c: 594:     uint16_t i, bufferSize;;Source/Usb.c: 596:     bufferSize = ((0x
      +                          03 & Interfaces[0].Output.Stat) << 8) | Interfaces[0].Output.Cnt;
  5381  0645  3003               	movlw	3
  5382  0646  0020               	movlb	0	; select bank0
  5383  0647  0520               	andwf	32,w	;volatile
  5384  0648  00F0               	movwf	??_OutDataStage
  5385  0649  0870               	movf	??_OutDataStage,w
  5386  064A  00F4               	movwf	OutDataStage@bufferSize+1
  5387  064B  0821               	movf	33,w	;volatile
  5388  064C  00F3               	movwf	OutDataStage@bufferSize
  5389                           
  5390                           ;Source/Usb.c: 599:     wCount = wCount + bufferSize;
  5391  064D  0873               	movf	OutDataStage@bufferSize,w
  5392  064E  0730               	addwf	_wCount,w
  5393  064F  00B0               	movwf	_wCount
  5394  0650  0874               	movf	OutDataStage@bufferSize+1,w
  5395  0651  3D31               	addwfc	_wCount+1,w
  5396  0652  00B1               	movwf	_wCount+1
  5397  0653                     i1l2063:	
  5398                           
  5399                           ;Source/Usb.c: 601:     outPtr = (uint8_t*)&ControlTransferBuffer;
  5400  0653  3049               	movlw	(low (_ControlTransferBuffer| 0))& (0+255)
  5401  0654  00F0               	movwf	??_OutDataStage
  5402  0655  0870               	movf	??_OutDataStage,w
  5403  0656  00B6               	movwf	_outPtr
  5404  0657                     i1l2065:	
  5405                           
  5406                           ;Source/Usb.c: 603:     for (i=0;i<bufferSize;i++)
  5407  0657  01F1               	clrf	OutDataStage@i
  5408  0658  01F2               	clrf	OutDataStage@i+1
  5409  0659  2E70               	goto	i1l2075
  5410  065A                     i1l2067:	
  5411                           
  5412                           ;Source/Usb.c: 604:     {;Source/Usb.c: 605:         *inPtr++ = *outPtr++;
  5413  065A  0836               	movf	_outPtr,w
  5414  065B  0086               	movwf	6
  5415  065C  0187               	clrf	7
  5416  065D  0801               	movf	1,w
  5417  065E  00F0               	movwf	??_OutDataStage
  5418  065F  087D               	movf	_inPtr,w
  5419  0660  0086               	movwf	6
  5420  0661  0187               	clrf	7
  5421  0662  0870               	movf	??_OutDataStage,w
  5422  0663  0081               	movwf	1
  5423  0664                     i1l2069:	
  5424  0664  3001               	movlw	1
  5425  0665  00F0               	movwf	??_OutDataStage
  5426  0666  0870               	movf	??_OutDataStage,w
  5427  0667  07B6               	addwf	_outPtr,f
  5428  0668                     i1l2071:	
  5429  0668  3001               	movlw	1
  5430  0669  00F0               	movwf	??_OutDataStage
  5431  066A  0870               	movf	??_OutDataStage,w
  5432  066B  07FD               	addwf	_inPtr,f
  5433  066C                     i1l2073:	
  5434                           
  5435                           ;Source/Usb.c: 606:     }
  5436  066C  3001               	movlw	1
  5437  066D  07F1               	addwf	OutDataStage@i,f
  5438  066E  3000               	movlw	0
  5439  066F  3DF2               	addwfc	OutDataStage@i+1,f
  5440  0670                     i1l2075:	
  5441  0670  0874               	movf	OutDataStage@bufferSize+1,w
  5442  0671  0272               	subwf	OutDataStage@i+1,w
  5443  0672  1D03               	skipz
  5444  0673  2E76               	goto	u208_25
  5445  0674  0873               	movf	OutDataStage@bufferSize,w
  5446  0675  0271               	subwf	OutDataStage@i,w
  5447  0676                     u208_25:	
  5448  0676  1C03               	skipc
  5449  0677  2E79               	goto	u208_21
  5450  0678  2E7A               	goto	u208_20
  5451  0679                     u208_21:	
  5452  0679  2E5A               	goto	i1l2067
  5453  067A                     u208_20:	
  5454  067A                     i1l338:	
  5455  067A  0008               	return
  5456  067B                     __end_of_OutDataStage:	
  5457                           
  5458                           	psect	text31
  5459  0717                     __ptext31:	
  5460 ;; *************** function _BusReset *****************
  5461 ;; Defined at:
  5462 ;;		line 833 in file "Source/Usb.c"
  5463 ;; Parameters:    Size  Location     Type
  5464 ;;		None
  5465 ;; Auto vars:     Size  Location     Type
  5466 ;;		None
  5467 ;; Return value:  Size  Location     Type
  5468 ;;                  1    wreg      void 
  5469 ;; Registers used:
  5470 ;;		wreg, status,2, status,0, pclath, cstack
  5471 ;; Tracked objects:
  5472 ;;		On entry : 0/0
  5473 ;;		On exit  : 0/0
  5474 ;;		Unchanged: 0/0
  5475 ;; Data sizes:     COMMON   BANK0   BANK1   BANK2   BANK3   BANK4   BANK5   BANK6   BANK7   BANK8   BANK9  BANK10  BANK1
      +1  BANK12
  5476 ;;      Params:         0       0       0       0       0       0       0       0       0       0       0       0       
      +0       0
  5477 ;;      Locals:         0       0       0       0       0       0       0       0       0       0       0       0       
      +0       0
  5478 ;;      Temps:          1       0       0       0       0       0       0       0       0       0       0       0       
      +0       0
  5479 ;;      Totals:         1       0       0       0       0       0       0       0       0       0       0       0       
      +0       0
  5480 ;;Total ram usage:        1 bytes
  5481 ;; Hardware stack levels used:    1
  5482 ;; Hardware stack levels required when called:    1
  5483 ;; This function calls:
  5484 ;;		_WaitForSetupStage
  5485 ;; This function is called by:
  5486 ;;		_ProcessUSBTransactions
  5487 ;; This function uses a non-reentrant model
  5488 ;;
  5489                           
  5490                           
  5491                           ;psect for function _BusReset
  5492  0717                     _BusReset:	
  5493  0717                     i1l2277:	
  5494                           ;incstack = 0
  5495                           ; Regs used in _BusReset: [wreg+status,2+status,0+pclath+cstack]
  5496                           
  5497                           
  5498                           ;Source/Usb.c: 835:     UEIR = 0x00;
  5499  0717  003D               	movlb	29	; select bank29
  5500  0718  0193               	clrf	19	;volatile
  5501                           
  5502                           ;Source/Usb.c: 836:     UIR = 0x00;
  5503  0719  0190               	clrf	16	;volatile
  5504  071A                     i1l2279:	
  5505                           
  5506                           ;Source/Usb.c: 837:     UEIE = 0x9f;
  5507  071A  309F               	movlw	159
  5508  071B  0097               	movwf	23	;volatile
  5509  071C                     i1l2281:	
  5510                           
  5511                           ;Source/Usb.c: 838:     UIE = 0x7b;
  5512  071C  307B               	movlw	123
  5513  071D  0092               	movwf	18	;volatile
  5514                           
  5515                           ;Source/Usb.c: 839:     UADDR = 0x00;
  5516  071E  0196               	clrf	22	;volatile
  5517  071F                     i1l2283:	
  5518                           
  5519                           ;Source/Usb.c: 842:     UEP0 = 0x16;
  5520  071F  3016               	movlw	22
  5521  0720  0098               	movwf	24	;volatile
  5522                           
  5523                           ;Source/Usb.c: 845:     while (UIRbits.TRNIF == 1) UIRbits.TRNIF = 0;
  5524  0721  2F23               	goto	i1l399
  5525  0722                     i1l400:	
  5526  0722  1190               	bcf	16,3	;volatile
  5527  0723                     i1l399:	
  5528  0723  1990               	btfsc	16,3	;volatile
  5529  0724  2F26               	goto	u241_21
  5530  0725  2F27               	goto	u241_20
  5531  0726                     u241_21:	
  5532  0726  2F22               	goto	i1l400
  5533  0727                     u241_20:	
  5534  0727                     i1l401:	
  5535                           
  5536                           ;Source/Usb.c: 848:     UCONbits.PKTDIS = 0;
  5537  0727  120E               	bcf	14,4	;volatile
  5538  0728                     i1l2285:	
  5539                           
  5540                           ;Source/Usb.c: 851:     WaitForSetupStage();
  5541  0728  3187  27D2  3187   	fcall	_WaitForSetupStage
  5542  072B                     i1l2287:	
  5543                           
  5544                           ;Source/Usb.c: 853:     RemoteWakeup = 0;
  5545  072B  0020               	movlb	0	; select bank0
  5546  072C  01BD               	clrf	_RemoteWakeup
  5547  072D                     i1l2289:	
  5548                           
  5549                           ;Source/Usb.c: 854:     SelfPowered = 0;
  5550  072D  01BB               	clrf	_SelfPowered
  5551  072E                     i1l2291:	
  5552                           
  5553                           ;Source/Usb.c: 855:     CurrentConfiguration = 0;
  5554  072E  01D9               	clrf	_CurrentConfiguration
  5555  072F                     i1l2293:	
  5556                           
  5557                           ;Source/Usb.c: 856:     DeviceState = 0x03;
  5558  072F  3003               	movlw	3
  5559  0730  00F1               	movwf	??_BusReset
  5560  0731  0871               	movf	??_BusReset,w
  5561  0732  00BF               	movwf	_DeviceState
  5562  0733                     i1l402:	
  5563  0733  0008               	return
  5564  0734                     __end_of_BusReset:	
  5565                           
  5566                           	psect	text32
  5567  07D2                     __ptext32:	
  5568 ;; *************** function _WaitForSetupStage *****************
  5569 ;; Defined at:
  5570 ;;		line 680 in file "Source/Usb.c"
  5571 ;; Parameters:    Size  Location     Type
  5572 ;;		None
  5573 ;; Auto vars:     Size  Location     Type
  5574 ;;		None
  5575 ;; Return value:  Size  Location     Type
  5576 ;;                  1    wreg      void 
  5577 ;; Registers used:
  5578 ;;		wreg, status,2, status,0
  5579 ;; Tracked objects:
  5580 ;;		On entry : 0/0
  5581 ;;		On exit  : 0/0
  5582 ;;		Unchanged: 0/0
  5583 ;; Data sizes:     COMMON   BANK0   BANK1   BANK2   BANK3   BANK4   BANK5   BANK6   BANK7   BANK8   BANK9  BANK10  BANK1
      +1  BANK12
  5584 ;;      Params:         0       0       0       0       0       0       0       0       0       0       0       0       
      +0       0
  5585 ;;      Locals:         0       0       0       0       0       0       0       0       0       0       0       0       
      +0       0
  5586 ;;      Temps:          1       0       0       0       0       0       0       0       0       0       0       0       
      +0       0
  5587 ;;      Totals:         1       0       0       0       0       0       0       0       0       0       0       0       
      +0       0
  5588 ;;Total ram usage:        1 bytes
  5589 ;; Hardware stack levels used:    1
  5590 ;; This function calls:
  5591 ;;		Nothing
  5592 ;; This function is called by:
  5593 ;;		_ProcessControlTransfer
  5594 ;;		_Stall
  5595 ;;		_BusReset
  5596 ;; This function uses a non-reentrant model
  5597 ;;
  5598                           
  5599                           
  5600                           ;psect for function _WaitForSetupStage
  5601  07D2                     _WaitForSetupStage:	
  5602  07D2                     i1l2131:	
  5603                           ;incstack = 0
  5604                           ; Regs used in _WaitForSetupStage: [wreg+status,2+status,0]
  5605                           
  5606                           
  5607                           ;Source/Usb.c: 682:     CtrlTransferStage = 0x00;
  5608  07D2  0020               	movlb	0	; select bank0
  5609  07D3  01BA               	clrf	_CtrlTransferStage
  5610  07D4                     i1l2133:	
  5611                           
  5612                           ;Source/Usb.c: 683:     Interfaces[0].Output.Cnt = 0x08;
  5613  07D4  3008               	movlw	8
  5614  07D5  00A1               	movwf	33	;volatile
  5615  07D6                     i1l2135:	
  5616                           
  5617                           ;Source/Usb.c: 684:     Interfaces[0].Output.ADDR = ((unsigned int)(((unsigned long)&Set
      +                          upPacket) & 0xFFFF));
  5618  07D6  3040               	movlw	low _SetupPacket
  5619  07D7  00A2               	movwf	34	;volatile
  5620  07D8  3000               	movlw	high _SetupPacket
  5621  07D9  00A3               	movwf	35	;volatile
  5622  07DA                     i1l2137:	
  5623                           
  5624                           ;Source/Usb.c: 685:     Interfaces[0].Output.Stat = 0x80 | 0x08;
  5625  07DA  3088               	movlw	136
  5626  07DB  00F0               	movwf	??_WaitForSetupStage
  5627  07DC  0870               	movf	??_WaitForSetupStage,w
  5628  07DD  00A0               	movwf	32	;volatile
  5629  07DE                     i1l2139:	
  5630                           
  5631                           ;Source/Usb.c: 686:     Interfaces[0].Input.Stat = 0x00;
  5632  07DE  01A4               	clrf	36	;volatile
  5633  07DF                     i1l349:	
  5634  07DF  0008               	return
  5635  07E0                     __end_of_WaitForSetupStage:	
  5636  007E                     btemp	set	126	;btemp
  5637  007E                     int$flags	set	126
  5638  007E                     wtemp0	set	126


Data Sizes:
    Strings     0
    Constant    148
    Data        4
    BSS         43
    Persistent  32
    Stack       0

Auto Spaces:
    Space          Size  Autos    Used
    COMMON           14     13      14
    BANK0            64      7      53
    BANK1            80      0       0
    BANK2            80      0       0
    BANK3            80      0       0
    BANK4            80      0       0
    BANK5            80      0       0
    BANK6            80      0       0
    BANK7            80      0       0
    BANK8            80      0       0
    BANK9            80      0       0
    BANK10           80      0       0
    BANK11           80      0       0
    BANK12           48      0       0

Pointer List with Targets:

    inPtr	PTR unsigned char  size(1) Largest target is 16
		 -> NULL(NULL[0]), ControlTransferBuffer(BANK0[8]), Interfaces.Output(BANK0[4]), Interfaces(BANK0[16]), 

    outPtr	PTR unsigned char  size(1) Largest target is 8
		 -> NULL(NULL[0]), CurrentConfiguration(BANK0[1]), ControlTransferBuffer(BANK0[8]), HidProtocol(BANK0[1]), 
		 -> HidIdleRate(BANK0[1]), 

    ROMoutPtr	PTR const unsigned char  size(2) Largest target is 42
		 -> NULL(NULL[0]), DeviceDescriptor(CODE[18]), HIDReport(CODE[42]), StringDescriptor2(CODE[16]), 
		 -> StringDescriptor1(CODE[28]), StringDescriptor0(CODE[4]), ConfigurationDescriptor.HIDDescriptor(CODE[25]), ConfigurationDescriptor(CODE[34]), 

    StringDescriptorPointers	const PTR const unsigned char [3] size(2) Largest target is 28
		 -> StringDescriptor2(CODE[16]), StringDescriptor1(CODE[28]), StringDescriptor0(CODE[4]), 

    S22_BufferInfo$Buffer	PTR unsigned char  size(1) Largest target is 3
		 -> HIDRxBuffer(BANK0[3]), HIDTxBuffer(BANK0[3]), 

    Buffers.Buffer	PTR unsigned char  size(1) Largest target is 3
		 -> HIDRxBuffer(BANK0[3]), HIDTxBuffer(BANK0[3]), 


Critical Paths under _main in COMMON

    None.

Critical Paths under _ISRCode in COMMON

    _ISRCode->_ProcessUSBTransactions
    _ProcessUSBTransactions->_ProcessControlTransfer
    _Stall->_WaitForSetupStage
    _ProcessControlTransfer->_SetupStage
    _SetupStage->_ProcessStandardRequest
    _ProcessStandardRequest->_SetFeature
    _BusReset->_WaitForSetupStage

Critical Paths under _main in BANK0

    _main->_ProcessIO
    _ProcessIO->_NES_read_pad
    _ProcessIO->_PrepareTxBuffer
    _CheckUsb->_ReArmInterface

Critical Paths under _ISRCode in BANK0

    None.

Critical Paths under _main in BANK1

    None.

Critical Paths under _ISRCode in BANK1

    None.

Critical Paths under _main in BANK2

    None.

Critical Paths under _ISRCode in BANK2

    None.

Critical Paths under _main in BANK3

    None.

Critical Paths under _ISRCode in BANK3

    None.

Critical Paths under _main in BANK4

    None.

Critical Paths under _ISRCode in BANK4

    None.

Critical Paths under _main in BANK5

    None.

Critical Paths under _ISRCode in BANK5

    None.

Critical Paths under _main in BANK6

    None.

Critical Paths under _ISRCode in BANK6

    None.

Critical Paths under _main in BANK7

    None.

Critical Paths under _ISRCode in BANK7

    None.

Critical Paths under _main in BANK8

    None.

Critical Paths under _ISRCode in BANK8

    None.

Critical Paths under _main in BANK9

    None.

Critical Paths under _ISRCode in BANK9

    None.

Critical Paths under _main in BANK10

    None.

Critical Paths under _ISRCode in BANK10

    None.

Critical Paths under _main in BANK11

    None.

Critical Paths under _ISRCode in BANK11

    None.

Critical Paths under _main in BANK12

    None.

Critical Paths under _ISRCode in BANK12

    None.

Call Graph Tables:

 ---------------------------------------------------------------------------------
 (Depth) Function   	        Calls       Base Space   Used Autos Params    Refs
 ---------------------------------------------------------------------------------
 (0) _main                                                 0     0      0     739
                   _EnableInterrupts
                    _EnableUSBModule
                   _InitializeSystem
                      _InitializeUSB
                _NES_GPIO_Initialize
                          _ProcessIO
 ---------------------------------------------------------------------------------
 (1) _ProcessIO                                            2     2      0     739
                                              5 BANK0      2     2      0
                           _CheckUsb
                            _HIDSend
                       _NES_read_pad
                    _PrepareTxBuffer
 ---------------------------------------------------------------------------------
 (2) _PrepareTxBuffer                                      5     5      0     250
                                              0 BANK0      5     5      0
 ---------------------------------------------------------------------------------
 (2) _NES_read_pad                                         5     5      0      92
                                              0 BANK0      5     5      0
 ---------------------------------------------------------------------------------
 (2) _HIDSend                                              4     4      0     132
                                              0 BANK0      4     4      0
 ---------------------------------------------------------------------------------
 (2) _CheckUsb                                             0     0      0     198
                 _IsUsbDataAvaialble
                _ProcessIncomingData
                     _ReArmInterface
 ---------------------------------------------------------------------------------
 (3) _ReArmInterface                                       4     4      0     132
                                              0 BANK0      4     4      0
 ---------------------------------------------------------------------------------
 (3) _ProcessIncomingData                                  0     0      0       0
 ---------------------------------------------------------------------------------
 (3) _IsUsbDataAvaialble                                   2     2      0      66
                                              0 BANK0      2     2      0
 ---------------------------------------------------------------------------------
 (1) _NES_GPIO_Initialize                                  0     0      0       0
 ---------------------------------------------------------------------------------
 (1) _InitializeUSB                                        0     0      0       0
                     _ResetPPBuffers
 ---------------------------------------------------------------------------------
 (2) _ResetPPBuffers                                       0     0      0       0
 ---------------------------------------------------------------------------------
 (1) _InitializeSystem                                     0     0      0       0
 ---------------------------------------------------------------------------------
 (1) _EnableUSBModule                                      1     1      0       0
                                              0 BANK0      1     1      0
 ---------------------------------------------------------------------------------
 (1) _EnableInterrupts                                     0     0      0       0
 ---------------------------------------------------------------------------------
 Estimated maximum stack depth 3
 ---------------------------------------------------------------------------------
 (Depth) Function   	        Calls       Base Space   Used Autos Params    Refs
 ---------------------------------------------------------------------------------
 (4) _ISRCode                                              0     0      0    1527
             _ProcessUSBTransactions
 ---------------------------------------------------------------------------------
 (5) _ProcessUSBTransactions                               1     1      0    1527
                                             12 COMMON     1     1      0
                           _BusReset
             _ProcessControlTransfer
                              _Stall
                       _StartOfFrame
                            _Suspend
                          _UnSuspend
 ---------------------------------------------------------------------------------
 (6) _UnSuspend                                            1     1      0       0
                                              0 COMMON     1     1      0
 ---------------------------------------------------------------------------------
 (6) _Suspend                                              1     1      0       0
                                              0 COMMON     1     1      0
 ---------------------------------------------------------------------------------
 (6) _StartOfFrame                                         0     0      0       0
 ---------------------------------------------------------------------------------
 (6) _Stall                                                0     0      0       0
                  _WaitForSetupStage
 ---------------------------------------------------------------------------------
 (6) _ProcessControlTransfer                               3     3      0    1527
                                              9 COMMON     3     3      0
                        _InDataStage
                       _OutDataStage
                         _SetupStage
                  _WaitForSetupStage
 ---------------------------------------------------------------------------------
 (7) _SetupStage                                           1     1      0    1275
                                              8 COMMON     1     1      0
                        _InDataStage
                  _ProcessHIDRequest
             _ProcessStandardRequest
 ---------------------------------------------------------------------------------
 (8) _ProcessStandardRequest                               2     2      0     893
                                              6 COMMON     2     2      0
                      _GetDescriptor
                          _GetStatus
                   _HIDInitEndpoints
                         _SetFeature
 ---------------------------------------------------------------------------------
 (9) _SetFeature                                           6     6      0     180
                                              0 COMMON     6     6      0
 ---------------------------------------------------------------------------------
 (9) _HIDInitEndpoints                                     5     5      0     245
                                              0 COMMON     5     5      0
 ---------------------------------------------------------------------------------
 (9) _GetStatus                                            5     5      0     113
                                              0 COMMON     5     5      0
 ---------------------------------------------------------------------------------
 (9) _GetDescriptor                                        5     5      0     112
                                              0 COMMON     5     5      0
 ---------------------------------------------------------------------------------
 (8) _ProcessHIDRequest                                    3     3      0     222
                                              0 COMMON     3     3      0
 ---------------------------------------------------------------------------------
 (8) _InDataStage                                          5     5      0     160
                                              0 COMMON     5     5      0
 ---------------------------------------------------------------------------------
 (7) _OutDataStage                                         5     5      0      69
                                              0 COMMON     5     5      0
 ---------------------------------------------------------------------------------
 (6) _BusReset                                             1     1      0       0
                                              1 COMMON     1     1      0
                  _WaitForSetupStage
 ---------------------------------------------------------------------------------
 (7) _WaitForSetupStage                                    1     1      0       0
                                              0 COMMON     1     1      0
 ---------------------------------------------------------------------------------
 Estimated maximum stack depth 9
 ---------------------------------------------------------------------------------

 Call Graph Graphs:

 _main (ROOT)
   _EnableInterrupts
   _EnableUSBModule
   _InitializeSystem
   _InitializeUSB
     _ResetPPBuffers
   _NES_GPIO_Initialize
   _ProcessIO
     _CheckUsb
       _IsUsbDataAvaialble
       _ProcessIncomingData
       _ReArmInterface
     _HIDSend
     _NES_read_pad
     _PrepareTxBuffer

 _ISRCode (ROOT)
   _ProcessUSBTransactions
     _BusReset
       _WaitForSetupStage
     _ProcessControlTransfer
       _InDataStage
       _OutDataStage
       _SetupStage
         _InDataStage
         _ProcessHIDRequest
         _ProcessStandardRequest
           _GetDescriptor
           _GetStatus
           _HIDInitEndpoints
           _SetFeature
       _WaitForSetupStage
     _Stall
       _WaitForSetupStage
     _StartOfFrame
     _Suspend
     _UnSuspend

 Address spaces:
Name               Size   Autos  Total    Cost      Usage
BIGRAM             3F0      0       0       0        0.0%
NULL                 0      0       0       0        0.0%
CODE                 0      0       0       0        0.0%
BITCOMMON            E      0       0       1        0.0%
BITSFR0              0      0       0       1        0.0%
SFR0                 0      0       0       1        0.0%
COMMON               E      D       E       2      100.0%
BITSFR1              0      0       0       2        0.0%
SFR1                 0      0       0       2        0.0%
BITSFR2              0      0       0       3        0.0%
SFR2                 0      0       0       3        0.0%
STACK                0      0       0       3        0.0%
BITBANK0            40      0       0       4        0.0%
BITSFR3              0      0       0       4        0.0%
SFR3                 0      0       0       4        0.0%
BANK0               40      7      35       5       82.8%
BITSFR4              0      0       0       5        0.0%
SFR4                 0      0       0       5        0.0%
BITBANK1            50      0       0       6        0.0%
BITSFR5              0      0       0       6        0.0%
SFR5                 0      0       0       6        0.0%
BANK1               50      0       0       7        0.0%
BITSFR6              0      0       0       7        0.0%
SFR6                 0      0       0       7        0.0%
BITBANK2            50      0       0       8        0.0%
BITSFR7              0      0       0       8        0.0%
SFR7                 0      0       0       8        0.0%
BANK2               50      0       0       9        0.0%
BITSFR8              0      0       0       9        0.0%
SFR8                 0      0       0       9        0.0%
BITBANK3            50      0       0      10        0.0%
BITSFR9              0      0       0      10        0.0%
SFR9                 0      0       0      10        0.0%
BANK3               50      0       0      11        0.0%
BITSFR10             0      0       0      11        0.0%
SFR10                0      0       0      11        0.0%
BITBANK4            50      0       0      12        0.0%
BITSFR11             0      0       0      12        0.0%
SFR11                0      0       0      12        0.0%
BANK4               50      0       0      13        0.0%
BITSFR12             0      0       0      13        0.0%
SFR12                0      0       0      13        0.0%
BITBANK5            50      0       0      14        0.0%
BITSFR13             0      0       0      14        0.0%
SFR13                0      0       0      14        0.0%
BANK5               50      0       0      15        0.0%
BITSFR14             0      0       0      15        0.0%
SFR14                0      0       0      15        0.0%
BITBANK6            50      0       0      16        0.0%
BITSFR15             0      0       0      16        0.0%
SFR15                0      0       0      16        0.0%
BANK6               50      0       0      17        0.0%
BITSFR16             0      0       0      17        0.0%
SFR16                0      0       0      17        0.0%
BITBANK7            50      0       0      18        0.0%
BITSFR17             0      0       0      18        0.0%
SFR17                0      0       0      18        0.0%
BANK7               50      0       0      19        0.0%
BITSFR18             0      0       0      19        0.0%
SFR18                0      0       0      19        0.0%
BITSFR19             0      0       0      20        0.0%
SFR19                0      0       0      20        0.0%
ABS                  0      0      43      20        0.0%
BITBANK8            50      0       0      21        0.0%
BITSFR20             0      0       0      21        0.0%
SFR20                0      0       0      21        0.0%
BANK8               50      0       0      22        0.0%
BITSFR21             0      0       0      22        0.0%
SFR21                0      0       0      22        0.0%
BITBANK9            50      0       0      23        0.0%
BITSFR22             0      0       0      23        0.0%
SFR22                0      0       0      23        0.0%
BANK9               50      0       0      24        0.0%
BITSFR23             0      0       0      24        0.0%
SFR23                0      0       0      24        0.0%
BITBANK10           50      0       0      25        0.0%
BITSFR24             0      0       0      25        0.0%
SFR24                0      0       0      25        0.0%
BANK10              50      0       0      26        0.0%
BITSFR25             0      0       0      26        0.0%
SFR25                0      0       0      26        0.0%
BITBANK11           50      0       0      27        0.0%
BITSFR26             0      0       0      27        0.0%
SFR26                0      0       0      27        0.0%
BANK11              50      0       0      28        0.0%
BITSFR27             0      0       0      28        0.0%
SFR27                0      0       0      28        0.0%
BITBANK12           30      0       0      29        0.0%
BITSFR28             0      0       0      29        0.0%
SFR28                0      0       0      29        0.0%
BANK12              30      0       0      30        0.0%
BITSFR29             0      0       0      30        0.0%
SFR29                0      0       0      30        0.0%
BITSFR30             0      0       0      31        0.0%
SFR30                0      0       0      31        0.0%
DATA                 0      0      43      31        0.0%
BITSFR31             0      0       0      32        0.0%
SFR31                0      0       0      32        0.0%


Microchip Technology PIC Macro Assembler V2.10 build 88905656 
Symbol Table                                                                                   Sat Feb 11 12:51:33 2023

                     __CFG_CP$OFF 0000        __size_of_WaitForSetupStage 000E            __end_of_ResetPPBuffers 0FE6  
                              l90 05FB                                l75 07D1                                l84 05D6  
                              l93 0609                                l78 07FE                                l86 05E2  
                              l95 060A                                l89 05F3                                l98 07FF  
      __end_of_IsUsbDataAvaialble 06F5          __end_of_EnableInterrupts 07FF                               l102 07A1  
                             l107 06A5                               l214 05BE                               l207 06F4  
                             l218 0564                               l434 07F6                               l371 0FE2  
                             l380 075B                               l373 0FE5                               l437 060B  
                             l383 0769                               l447 0644                               l376 07C1  
                             _UIE 0E92                               _UIR 0E90                      __CFG_BORV$LO 0000  
                             wreg 0009                      _transferType 0035                   __end_of_HIDSend 0565  
                    __CFG_LVP$OFF 0000                              l2201 0642                              l2043 06D9  
                            l2211 0545                              l2045 06E8                              l2037 06D2  
                            l2053 0567                              l2213 0555                              l2205 050C  
                            l2141 05C1                              l2039 06D7                              l2055 0576  
                            l2151 05CB                              l2057 059F                              l2209 051C  
                            l2161 05E6                              l2153 05D1                              l2411 07B5  
                            l2059 05AF                              l2171 0791                              l2163 05EA  
                            l2155 05D7                              l2147 05C2                              l2403 0698  
                            l2421 07BC                              l2413 07B7                              l2173 079A  
                            l2181 0612                              l2165 05EE                              l2157 05D9  
                            l2149 05C7                              l2405 06A0                              l2431 0758  
                            l2423 07BF                              l2415 07B8                              l2407 07EC  
                            l2175 079D                              l2191 0628                              l2183 0614  
                            l2167 05F7                              l2159 05DD                              l2433 0760  
                            l2425 0750                              l2417 07B9                              l2409 07B2  
                            l2193 062B                              l2177 060D                              l2169 0603  
                            l2435 0762                              l2427 0755                              l2419 07BB  
                            l2195 062D                              l2187 0616                              l2179 0610  
                            l2451 0773                              l2437 0763                              l2429 0757  
                            l2381 07CF                              l2373 07C2                              l2197 0630  
                            l2189 0626                              l2453 0776                              l2445 076A  
                            l2383 07F7                              l2439 0764                              l2375 07C7  
                            l2199 0635                              l2391 067B                              l2455 0779  
                            l2447 076D                              l2385 07FA                              l2377 07C9  
                            l2393 0682                              l2449 0770                              l2387 07FB  
                            l2379 07CC                              l2395 0687                              l2389 07FC  
                            l2397 068A                              l2399 0691                              u2010 0576  
                            u2011 0575                              u2005 056A                              u2200 0642  
                            u2120 05D1                              u2025 0579                              u2201 0641  
                            u2121 05D0                              u2050 059F                              u2130 05D6  
                            u2051 059E                              u2035 0586                              u2131 05D5  
                            u2220 051B                              u2140 05DD                              u2045 0593  
                            u2221 051A                              u2205 063E                              u2141 05DC  
                            u2150 05E6                              u2215 050F                              u2151 05E5  
                            _LATC 010E                              u2160 05EE                              u2065 05A4  
                            u2161 05ED                              u2170 05F7                              u2075 05B4  
                            u2235 051F                              u2171 05F6                              u2180 079A  
                            u2260 0545                              u2181 0799                              u2261 0544  
                            u2245 052C                              u2255 0539                              u2600 0687  
                            u2601 0686                              u2194 0620                              u2610 0697  
                            u2275 054A                              u2195 061F                              u2611 0696  
                            u2620 0755                              u2621 0754                              u2285 055A  
                            u2630 0760                              u2631 075F                              u2707 0629  
                            u2717 062E                              u2590 0682                              u2591 0681  
                            u1960 06D7                              u1961 06D6                              u1980 06E8  
                            u1981 06E7                              u1975 06DC                              u2697 060E  
                            u1995 06EB                              i1l72 000E                              _UCFG 0E91  
                            _UEP0 0E98                              _UEIE 0E97                              _UEIR 0E93  
                            _UCON 0E8E                   __end_of_ISRCode 0010                      __CFG_WRT$OFF 0000  
                            _main 076A             __end_of_GetDescriptor 050A                              fsr0h 0005  
                            fsr1h 0007                              indf0 0000                              fsr0l 0004  
                            indf1 0001                              fsr1l 0006                              btemp 007E  
            _CurrentConfiguration 0059                     __CFG_BOREN$ON 0000                              start 0010  
                   __CFG_IESO$OFF 0000            __size_of_InitializeUSB 0010                 ??_EnableUSBModule 005A  
                _HIDInitEndpoints 01EE               _NES_GPIO_Initialize 07EC                   ?_ResetPPBuffers 0070  
   IsUsbDataAvaialble@InterfaceNo 005B                             ?_main 0070                     __CFG_WDTE$OFF 0000  
                 __end_of_Suspend 0FF8                             i1l230 003E                             i1l231 00C8  
                           i1l400 0722                             i1l401 0727                             i1l225 0278  
                           i1l402 0733                             i1l332 02F8                             i1l341 0403  
                           i1l405 0167                             i1l414 01DA                             i1l406 01ED  
                           i1l263 0509                             i1l343 0430                             i1l256 0509  
                           i1l408 0180                             i1l338 067A                             i1l346 0443  
                           i1l291 036A                             i1l276 04A8                             i1l349 07DF  
                           i1l286 034B                             i1l295 015B                             i1l368 03D9  
                           i1l393 07EB                             i1l386 0FFF                             i1l396 0FF7  
                           i1l389 0FE1                             i1l399 0723                             _UADDR 0E96  
                           _USTAT 0E8F                HIDSend@InterfaceNo 005D                    __CFG_FCMEN$OFF 0000  
                     _InDataStage 0279                             _Stall 07E0                             _inPtr 007D  
        ??_ProcessUSBTransactions 007C              ?_NES_GPIO_Initialize 0070                       _HidIdleRate 0058  
                           status 0003                             wtemp0 007E                  __end_of_CheckUsb 07A2  
                  __CFG_MCLRE$OFF 0000                   __initialization 0012                  __end_of_BusReset 0734  
                    __end_of_main 077F       __end_of_ProcessIncomingData 0800          ??_ProcessControlTransfer 0079  
                  __CFG_LPBOR$OFF 0000                       _DeviceState 003F                            ??_main 0061  
                     _HidProtocol 0057         __size_of_InitializeSystem 0010                 __end_of_HIDReport 06D0  
                      _Interfaces 0020                         ??_HIDSend 005A               __CFG_USBLSCLK$48MHz 0000  
              __size_of_GetStatus 0065                         ??_ISRCode 007D                        _SetFeature 02F9  
                   _InitializeUSB 07B2                            ?_Stall 0070             ??_NES_GPIO_Initialize 005A  
                          _ACTCON 039B                            _ANSELA 018C                            _ANSELC 018E  
                          i1l2001 0288                            i1l2011 02A7                            i1l2003 028C  
                          i1l2021 02C1                            i1l2013 02AC                            i1l2005 0290  
                          i1l2101 0407                            i1l2031 02E3                            i1l2015 02AE  
                          i1l2023 02C5                            i1l2007 0299                            i1l2111 041F  
                          i1l2103 0411                            i1l2033 02E7                            i1l2017 02B9  
                          i1l2025 02D3                            i1l2009 029D                            i1l2121 0433  
                          i1l2113 0423                            i1l2105 0415                            i1l2131 07D2  
                          i1l2027 02D5                            i1l2035 02EB                            i1l2019 02BD  
                          i1l2123 0437                            i1l2115 0427                            i1l2107 0418  
                          i1l2133 07D4                            i1l2061 0645                            i1l2029 02DF  
                          i1l2125 0439                            i1l2117 042B                            i1l2109 041D  
                          i1l2221 0387                            i1l2135 07D6                            i1l2071 0668  
                          i1l2063 0653                            i1l2127 043D                            i1l2119 0432  
                          i1l2223 038C                            i1l2231 039E                            i1l2215 036B  
                          i1l2311 017C                            i1l2303 016C                            i1l2137 07DA  
                          i1l2073 066C                            i1l2065 0657                            i1l2129 0441  
                          i1l2081 03E4                            i1l2241 03B7                            i1l2225 038F  
                          i1l2217 0371                            i1l2233 03A2                            i1l2321 018B  
                          i1l2313 017D                            i1l2305 0170                            i1l2139 07DE  
                          i1l2067 065A                            i1l2075 0670                            i1l2091 03EE  
                          i1l2083 03E5                            i1l2251 03D0                            i1l2243 03BC  
                          i1l2235 03A8                            i1l2227 0394                            i1l2219 0383  
                          i1l2331 01A0                            i1l2323 0190                            i1l2307 0173  
                          i1l2069 0664                            i1l2093 03F4                            i1l2085 03E6  
                          i1l2077 03DA                            i1l2253 03D5                            i1l2237 03AD  
                          i1l2245 03C1                            i1l2229 0399                            i1l2261 0FDF  
                          i1l2341 01B4                            i1l2333 01A4                            i1l2325 0194  
                          i1l2317 0184                            i1l2309 0178                            i1l2095 03F6  
                          i1l2087 03E8                            i1l2079 03E3                            i1l2247 03C8  
                          i1l2239 03B4                            i1l2263 07E0                            i1l2271 0FF0  
                          i1l2351 01C8                            i1l2343 01B8                            i1l2335 01A8  
                          i1l2327 0198                            i1l2319 0188                            i1l2281 071C  
                          i1l1801 0478                            i1l2097 03FA                            i1l2089 03EB  
                          i1l2249 03CB                            i1l2265 07E5                            i1l2273 0FF2  
                          i1l2257 0FF8                            i1l2361 01D7                            i1l2353 01C9  
                          i1l2345 01BB                            i1l2337 01AB                            i1l2329 019B  
                          i1l2441 0006                            i1l2291 072E                            i1l2283 071F  
                          i1l1811 0496                            i1l1803 047A                            i1l2099 03FE  
                          i1l2267 07E8                            i1l2275 0FF6                            i1l2259 0FFB  
                          i1l2371 01EB                            i1l2355 01CA                            i1l2347 01C0  
                          i1l2339 01B0                            i1l2443 000B                            i1l2293 072F  
                          i1l2285 0728                            i1l2277 0717                            i1l1901 0092  
                          i1l1741 04A9                            i1l1805 0486                            i1l1813 049A  
                          i1l1821 02FF                            i1l2269 07EA                            i1l2365 01DF  
                          i1l2349 01C4                            i1l2357 01CE                            i1l2287 072B  
                          i1l2279 071A                            i1l1911 00A6                            i1l1903 0094  
                          i1l1751 04C7                            i1l1743 04B0                            i1l1815 049F  
                          i1l1807 048B                            i1l1735 01F2                            i1l1831 0315  
                          i1l1823 0303                            i1l2367 01E3                            i1l2359 01D5  
                          i1l2295 015C                            u210_20 0407                            i1l2289 072D  
                          i1l1921 00BC                            i1l1913 00AB                            i1l1905 009C  
                          i1l1761 04DB                            i1l1753 04CA                            i1l1745 04B8  
                          i1l1817 04A7                            i1l1809 048F                            i1l1737 026F  
                          i1l1729 01EE                            i1l1841 032F                            i1l1833 0318  
                          i1l1825 0308                            u210_21 0406                            i1l2369 01E6  
                          i1l2297 0162                            i1l1923 00C2                            i1l1915 00B1  
                          i1l1907 009E                            i1l1771 04FD                            i1l1763 04E1  
                          i1l1755 04D0                            i1l1747 04BD                            i1l1739 0273  
                          i1l1851 0359                            i1l1843 0334                            i1l1827 030D  
                          i1l1835 031A                            i1l1819 02F9                            i1l2299 0164  
                          i1l1925 00C4                            i1l1917 00B3                            i1l1909 00A4  
                          i1l1861 003F                            i1l1765 04E3                            i1l1757 04D2  
                          i1l1749 04BF                            i1l1781 044C                            i1l1853 035E  
                          i1l1845 0336                            i1l1837 0320                            i1l1829 030F  
                          i1l1941 00EC                            i1l1933 00D5                            i1l1871 0055  
                          i1l1863 0043                            i1l1767 04E9                            i1l1791 045E  
                          i1l1783 0451                            i1l1775 0444                            i1l1855 0363  
                          i1l1847 0347                            i1l1839 032A                            i1l1951 0101  
                          i1l1943 00F0                            i1l1935 00DB                            i1l1927 00C9  
                          u211_20 0411                            i1l1873 005D                            i1l1865 0049  
                          i1l1857 002F                            i1l1769 04EE                            i1l1785 0453  
                          i1l1793 0460                            i1l1777 044A                            i1l1849 0351  
                          i1l1961 0116                            i1l1953 0106                            i1l1945 00F6  
                          i1l1937 00DD                            i1l1929 00CE                            u211_21 0410  
                          i1l1891 007B                            i1l1883 0071                            i1l1875 0060  
                          i1l1867 004D                            i1l1859 0038                            i1l1795 0465  
                          i1l1787 0458                            i1l1779 044B                            i1l1971 012E  
                          i1l1963 011E                            i1l1955 010A                            i1l1947 00F8  
                          i1l1939 00E6                            i1l1877 0066                            i1l1869 0053  
                          i1l1797 0468                            i1l1789 0459                            i1l1981 0141  
                          i1l1973 0134                            i1l1965 0120                            i1l1949 00FC  
                          i1l1957 010E                            u211_25 040D                            i1l1895 0081  
                          i1l1879 0068                            i1l1887 0071                            i1l1799 046E  
                          i1l1983 0145                            i1l1975 0138                            i1l1967 0125  
                          i1l1959 0114                            i1l1897 0087                            i1l1993 015B  
                          i1l1977 013E                            i1l1985 014B                            i1l1969 0129  
                          i1l1899 008C                            i1l1987 0151                            i1l1979 0140  
                          i1l1997 0279                            u140_25 0245                            i1l1989 0154  
                          i1l1999 0283                            u141_25 0254                            u150_20 0458  
                          u150_21 0457                            u142_25 0265                            u230_25 0375  
                          u151_20 045E                            u143_20 0278                            u231_20 0383  
                          u151_21 045D                            u143_21 0277                            u231_21 0382  
                          u135_25 01FE                            u208_20 067A                            u144_20 04B0  
                          u152_20 0465                            u160_20 0315                            u232_20 038C  
                          u240_20 07E5                            u208_21 0679                            u144_21 04AF  
                          u152_21 0464                            u160_21 0314                            u232_21 038B  
                          u240_21 07E4                            u208_25 0676                            u136_25 020B  
                          u241_20 0727                            u145_20 04BD                            u153_20 046E  
                          u161_20 0320                            u209_20 03F4                            u233_20 0394  
                          u241_21 0726                            u145_21 04BC                            u153_21 046D  
                          u161_21 031F                            u209_21 03F3                            u233_21 0393  
                          u137_25 0218                            u170_20 0049                            u146_20 04D0  
                          u162_20 032F                            u234_20 03A8                            u250_20 01A4  
                          u242_20 0162                            u170_21 0048                            u146_21 04CF  
                          u162_21 032E                            u234_21 03A7                            u250_21 01A3  
                          u242_21 0161                            u154_25 047D                            u138_25 0227  
                          u171_20 0053                            u147_20 04E1                            u155_20 048B  
                          u163_20 0334                            u235_20 03AD                            u251_20 01A8  
                          u243_20 016C                            u171_21 0052                            u147_21 04E0  
                          u155_21 048A                            u163_21 0333                            u235_21 03AC  
                          u251_21 01A7                            u243_21 016B                            u139_25 0238  
                          u172_20 0066                            u148_20 04E9                            u156_20 0496  
                          u180_20 00D4                            u236_20 03B4                            u252_20 01B4  
                          u244_20 0170                            u172_21 0065                            u148_21 04E8  
                          u156_21 0495                            u180_21 00D3                            u236_21 03B3  
                          u252_21 01B3                            u244_21 016F                            u164_25 0339  
                          u173_20 007A                            u157_20 049F                            u149_20 0451  
                          u165_20 0347                            u181_20 00DB                            u237_20 03BC  
                          u229_20 0371                            u253_20 01B8                            u245_20 017C  
                          u173_21 0079                            u157_21 049E                            u149_21 0450  
                          u165_21 0346                            u181_21 00DA                            u237_21 03BB  
                          u229_21 0370                            u253_21 01B7                            u245_21 017B  
                          u174_20 0080                            u166_20 0351                            u158_20 0308  
                          u190_20 0151                            u182_20 00EC                            u238_20 03C8  
                          u254_20 01C4                            u246_20 0184                            u174_21 007F  
                          u166_21 0350                            u158_21 0307                            u190_21 0150  
                          u182_21 00EB                            u238_21 03C7                            u254_21 01C3  
                          u246_21 0183                            u175_20 0087                            u167_20 035E  
                          u159_20 030D                            u191_20 015A                            u183_20 00F6  
                          u239_20 03D0                            u255_20 01C8                            u247_20 0188  
                          u175_21 0086                            u167_21 035D                            u159_21 030C  
                          u191_21 0159                            u183_21 00F5                            u239_21 03CF  
                          u255_21 01C7                            u247_21 0187                            u192_20 0283  
                          u176_20 0092                            u168_20 0038                            u184_20 0101  
                          u256_20 01D5                            u248_20 0194                            u264_20 000B  
                          u192_21 0282                            u176_21 0091                            u168_21 0037  
                          u184_21 0100                            u256_21 01D4                            u248_21 0193  
                          u264_21 000A                            u193_20 02AC                            u177_20 00A4  
                          u169_20 003D                            u185_20 0114                            u257_20 01DF  
                          u249_20 0198                            u193_21 02AB                            u177_21 00A3  
                          u169_21 003C                            u185_21 0113                            u257_21 01DE  
                          u249_21 0197                            u194_20 02D2                            u178_20 00B1  
                          u186_20 0125                            u258_20 01E3                            u194_21 02D1  
                          u178_21 00B0                            u186_21 0124                            u258_21 01E2  
                          u194_25 02CE                            u195_20 02F8                            u179_20 00C2  
                          u187_20 012E                            u195_21 02F7                            u179_21 00C1  
                          u187_21 012D                            u195_25 02F4                            u188_20 0134  
                          u188_21 0133                            u189_20 013E                            u189_21 013D  
                          _OSCCON 0099         ProcessHIDRequest@bRequest 0072                    __CFG_PWRTE$OFF 0000  
                  __CFG_STVREN$ON 0000            OutDataStage@bufferSize 0073                         ??_Suspend 0070  
  PrepareTxBuffer@gamepad_reading 005E                            _wCount 0030                        _SetupStage 03DA  
                          _outPtr 0036                __size_of_UnSuspend 0008                __size_of_ProcessIO 002B  
                  ?_InitializeUSB 0070          __size_of_PrepareTxBuffer 004C           ?_ProcessStandardRequest 0070  
 __size_of_ProcessUSBTransactions 0092      GetDescriptor@descriptorIndex 0073                    _RequestHandled 0038  
         __end_of__initialization 002B             SetFeature@endpointDir 0075                 __end_of_GetStatus 04A9  
           SetFeature@endpointNum 0074                    __pcstackCOMMON 0070                     __end_of_Stall 07EC  
                    __pidataBANK0 0FE6   __size_of_ProcessControlTransfer 006F                 ?_EnableInterrupts 0070  
                       ?_CheckUsb 0070                ??_EnableInterrupts 005A    __end_of_ProcessStandardRequest 015C  
                     ?_SetFeature 0070                           ??_Stall 0071           __size_of_ReArmInterface 005A  
              _IsUsbDataAvaialble 06D0          __end_of_HIDInitEndpoints 0279                         ?_BusReset 0070  
                      __pbssBANK0 0030                   _EnableUSBModule 0750  __end_of_StringDescriptorPointers 1006  
                   ?_OutDataStage 0070               ?_IsUsbDataAvaialble 0070                 __end_of_UnSuspend 1000  
               __end_of_ProcessIO 06A6                     ?_NES_read_pad 0070                  ??_ResetPPBuffers 005A  
           InDataStage@bufferSize 0073                        __pmaintext 076A                   __CFG_PLLMULT$3x 0000  
          _ProcessUSBTransactions 015C                        __pintentry 0004                       ?_SetupStage 0070  
                     _SelfPowered 003B                  _InitializeSystem 07C2              ??_IsUsbDataAvaialble 005A  
                 ??_InitializeUSB 005A                           _HIDSend 050A                        ??_CheckUsb 005E  
                    ?_InDataStage 0070                           _ISRCode 0004                           _OSCTUNE 0098  
                         _UIEbits 0E92                        ??_BusReset 0071                           _UIRbits 0E90  
          _ProcessControlTransfer 036B                    ??_OutDataStage 0070                 ??_PrepareTxBuffer 005A  
                         _Buffers 0061                    ??_NES_read_pad 005A               __size_of_SetFeature 0072  
                         _Suspend 0FF0                     OutDataStage@i 0071                           __ptext1 067B  
                         __ptext2 05BF                           __ptext3 060B                           __ptext4 050A  
                         __ptext5 0791                           __ptext6 0565                           __ptext7 07FF  
                         __ptext8 06D0                           __ptext9 07EC            __size_of_GetDescriptor 0061  
                     _SetupPacket 0040           __end_of_EnableUSBModule 076A                         _HIDReport 06A6  
                         clrloop0 0FEB              end_of_initialization 002B               __size_of_SetupStage 006A  
                   NES_read_pad@i 005D         ReArmInterface@InterfaceNo 005D                     ?_StartOfFrame 0070  
                       _PORTAbits 000C                         _PORTCbits 000E       __end_of_NES_GPIO_Initialize 07F7  
    __size_of_ProcessIncomingData 0001                  __CFG_FOSC$INTOSC 0000                         _TRISAbits 008C  
                       _TRISCbits 008E                    _ReArmInterface 0565     ProcessStandardRequest@request 0077  
                       _ROMoutPtr 0032                     _GetDescriptor 04A9                __CFG_PLLEN$ENABLED 0000  
                  ??_StartOfFrame 0070                      InDataStage@i 0072              GetStatus@endpointDir 0073  
            GetStatus@endpointNum 0072                         _GetStatus 0444   __end_of_ConfigurationDescriptor 0717  
            __end_of_OutDataStage 067B            __end_of_ReArmInterface 05BF                 _StringDescriptor0 1006  
               _StringDescriptor1 0734                 _StringDescriptor2 07A2              __end_of_NES_read_pad 0645  
             start_initialization 0012                      ??_SetFeature 0070                  ?_EnableUSBModule 0070  
               __size_of_CheckUsb 0011              __size_of_InDataStage 0080                 ?_HIDInitEndpoints 0070  
       __size_of_EnableInterrupts 0008                     _DeviceAddress 003C                 __size_of_BusReset 001D  
              ??_HIDInitEndpoints 0070                    ?_GetDescriptor 0070          __end_of_InitializeSystem 07D2  
         ?_ProcessUSBTransactions 0070                         _UnSuspend 0FF8                __end_of_SetFeature 036B  
                       _ProcessIO 067B                        ?_GetStatus 0070                       __pdataBANK0 0061  
                    ??_SetupStage 0078                 HIDInitEndpoints@i 0074         __end_of_StringDescriptor0 100A  
       __end_of_StringDescriptor1 0750         __end_of_StringDescriptor2 07B2                      _last_reading 0034  
     GetDescriptor@descriptorType 0074                          ?_HIDSend 0070                   ?_ReArmInterface 0070  
                 _PrepareTxBuffer 05BF                       __pbssCOMMON 007D                         ___latbits 0002  
                   __pcstackBANK0 005A                          ?_ISRCode 0070           ?_ProcessControlTransfer 0070  
  __end_of_ProcessUSBTransactions 01EE                __end_of_SetupStage 0444                  PrepareTxBuffer@n 005D  
                PrepareTxBuffer@x 005B                  PrepareTxBuffer@y 005C                 _ProcessHIDRequest 002F  
                      ?_UnSuspend 0070                        ?_ProcessIO 0070                          ?_Suspend 0070  
              ?_ProcessHIDRequest 0070       __size_of_IsUsbDataAvaialble 0025               ??_ProcessHIDRequest 0070  
  __end_of_ProcessControlTransfer 03DA             __end_of_InitializeUSB 07C2                    __size_of_Stall 000C  
            __end_of_StartOfFrame 0FE2                   ??_GetDescriptor 0070                          _LATCbits 010E  
                       clear_ram0 0FEA                          _PIE2bits 0092               _ProcessIncomingData 07FF  
                _DeviceDescriptor 077F         __end_of_ProcessHIDRequest 00C9                          _PIR2bits 0012  
                     _HIDRxBuffer 0054                          _UEP0bits 0E98             __size_of_OutDataStage 0036  
                     _HIDTxBuffer 0051                          _UCONbits 0E8E                       ??_GetStatus 0070  
         __end_of_PrepareTxBuffer 060B          ??_ProcessStandardRequest 0076             __size_of_NES_read_pad 003A  
         __size_of_ResetPPBuffers 0004              ?_ProcessIncomingData 0070                          _CheckUsb 0791  
                    _RemoteWakeup 003D                  __size_of_HIDSend 005B                NES_read_pad@output 005C  
                        _HidRxLen 0037                  __size_of_ISRCode 000C                          _BusReset 0717  
                _EnableInterrupts 07F7                      _OutDataStage 0645              _last_gamepad_reading 003E  
                    _NES_read_pad 060B             _ControlTransferBuffer 0049                 _CtrlTransferStage 003A  
                     ??_UnSuspend 0070                       ??_ProcessIO 005F                  __size_of_Suspend 0008  
                   _EndpointFlags 0E99   ProcessHIDRequest@descriptorType 0071                 _WaitForSetupStage 07D2  
                      _ANSELAbits 018C                        _ANSELCbits 018E             ??_ProcessIncomingData 005A  
              ?_WaitForSetupStage 0070                          __ptext10 07B2                          __ptext11 0FE2  
                        __ptext20 07E0                          __ptext12 07C2                          __ptext21 036B  
                        __ptext13 0750                          __ptext30 0645                          __ptext22 03DA  
                        __ptext14 07F7                          __ptext31 0717                          __ptext23 00C9  
                        __ptext32 07D2                          __ptext24 02F9                          __ptext16 015C  
                        __ptext25 01EE                          __ptext17 0FF8                          __ptext26 0444  
                        __ptext18 0FF0                          __ptext27 04A9                          __ptext19 0FDF  
                        __ptext28 002F                          __ptext29 0279               ??_WaitForSetupStage 0070  
    __size_of_NES_GPIO_Initialize 000B               SetFeature@recipient 0072                     __size_of_main 0015  
               ?_InitializeSystem 0070        __size_of_ProcessHIDRequest 009A                ??_InitializeSystem 005A  
                        int$flags 007E          _StringDescriptorPointers 1000         __size_of_HIDInitEndpoints 008B  
       __end_of_WaitForSetupStage 07E0                  ??_ReArmInterface 005A                  ?_PrepareTxBuffer 0070  
 __size_of_ProcessStandardRequest 0093                  ProcessIO@reading 0060             __size_of_StartOfFrame 0003  
                      _INTCONbits 000B                     ??_InDataStage 0070         ProcessControlTransfer@PID 007B  
                        intlevel1 0000                GetStatus@recipient 0074           _ConfigurationDescriptor 06F5  
        __size_of_EnableUSBModule 001A                 __CFG_CLKOUTEN$OFF 0000                      _StartOfFrame 0FDF  
            __CFG_CPUDIV$NOCLKDIV 0000                 SetFeature@feature 0073                     __pstringtext1 1000  
                   __pstringtext2 06A6                     __pstringtext3 06F5                     __pstringtext4 0734  
                   __pstringtext5 077F                     __pstringtext6 07A2                     __pstringtext7 1006  
                  _ResetPPBuffers 0FE2                    _HIDPostProcess 0039                        _OPTION_REG 0095  
        __end_of_DeviceDescriptor 0791            _ProcessStandardRequest 00C9               __end_of_InDataStage 02F9  
